ARM GAS  /var/folders/pn/6vkv57yd1x9dxx59v7t3_slc0000gn/T//cc3QrNNe.s 			page 1


   1              		.cpu cortex-m4
   2              		.arch armv7e-m
   3              		.fpu fpv4-sp-d16
   4              		.eabi_attribute 27, 1
   5              		.eabi_attribute 28, 1
   6              		.eabi_attribute 20, 1
   7              		.eabi_attribute 21, 1
   8              		.eabi_attribute 23, 3
   9              		.eabi_attribute 24, 1
  10              		.eabi_attribute 25, 1
  11              		.eabi_attribute 26, 1
  12              		.eabi_attribute 30, 1
  13              		.eabi_attribute 34, 1
  14              		.eabi_attribute 18, 4
  15              		.file	"tx_event_flags_set.c"
  16              		.text
  17              	.Ltext0:
  18              		.cfi_sections	.debug_frame
  19              		.file 1 "Middlewares/ST/threadx/common/src/tx_event_flags_set.c"
  20              		.section	.text._tx_event_flags_set,"ax",%progbits
  21              		.align	1
  22              		.global	_tx_event_flags_set
  23              		.syntax unified
  24              		.thumb
  25              		.thumb_func
  27              	_tx_event_flags_set:
  28              	.LVL0:
  29              	.LFB8:
   1:Middlewares/ST/threadx/common/src/tx_event_flags_set.c **** /**************************************************************************/
   2:Middlewares/ST/threadx/common/src/tx_event_flags_set.c **** /*                                                                        */
   3:Middlewares/ST/threadx/common/src/tx_event_flags_set.c **** /*       Copyright (c) Microsoft Corporation. All rights reserved.        */
   4:Middlewares/ST/threadx/common/src/tx_event_flags_set.c **** /*                                                                        */
   5:Middlewares/ST/threadx/common/src/tx_event_flags_set.c **** /*       This software is licensed under the Microsoft Software License   */
   6:Middlewares/ST/threadx/common/src/tx_event_flags_set.c **** /*       Terms for Microsoft Azure RTOS. Full text of the license can be  */
   7:Middlewares/ST/threadx/common/src/tx_event_flags_set.c **** /*       found in the LICENSE file at https://aka.ms/AzureRTOS_EULA       */
   8:Middlewares/ST/threadx/common/src/tx_event_flags_set.c **** /*       and in the root directory of this software.                      */
   9:Middlewares/ST/threadx/common/src/tx_event_flags_set.c **** /*                                                                        */
  10:Middlewares/ST/threadx/common/src/tx_event_flags_set.c **** /**************************************************************************/
  11:Middlewares/ST/threadx/common/src/tx_event_flags_set.c **** 
  12:Middlewares/ST/threadx/common/src/tx_event_flags_set.c **** 
  13:Middlewares/ST/threadx/common/src/tx_event_flags_set.c **** /**************************************************************************/
  14:Middlewares/ST/threadx/common/src/tx_event_flags_set.c **** /**************************************************************************/
  15:Middlewares/ST/threadx/common/src/tx_event_flags_set.c **** /**                                                                       */
  16:Middlewares/ST/threadx/common/src/tx_event_flags_set.c **** /** ThreadX Component                                                     */
  17:Middlewares/ST/threadx/common/src/tx_event_flags_set.c **** /**                                                                       */
  18:Middlewares/ST/threadx/common/src/tx_event_flags_set.c **** /**   Event Flags                                                         */
  19:Middlewares/ST/threadx/common/src/tx_event_flags_set.c **** /**                                                                       */
  20:Middlewares/ST/threadx/common/src/tx_event_flags_set.c **** /**************************************************************************/
  21:Middlewares/ST/threadx/common/src/tx_event_flags_set.c **** /**************************************************************************/
  22:Middlewares/ST/threadx/common/src/tx_event_flags_set.c **** 
  23:Middlewares/ST/threadx/common/src/tx_event_flags_set.c **** #define TX_SOURCE_CODE
  24:Middlewares/ST/threadx/common/src/tx_event_flags_set.c **** 
  25:Middlewares/ST/threadx/common/src/tx_event_flags_set.c **** 
  26:Middlewares/ST/threadx/common/src/tx_event_flags_set.c **** /* Include necessary system files.  */
  27:Middlewares/ST/threadx/common/src/tx_event_flags_set.c **** 
  28:Middlewares/ST/threadx/common/src/tx_event_flags_set.c **** #include "tx_api.h"
  29:Middlewares/ST/threadx/common/src/tx_event_flags_set.c **** #include "tx_trace.h"
ARM GAS  /var/folders/pn/6vkv57yd1x9dxx59v7t3_slc0000gn/T//cc3QrNNe.s 			page 2


  30:Middlewares/ST/threadx/common/src/tx_event_flags_set.c **** #include "tx_thread.h"
  31:Middlewares/ST/threadx/common/src/tx_event_flags_set.c **** #include "tx_event_flags.h"
  32:Middlewares/ST/threadx/common/src/tx_event_flags_set.c **** 
  33:Middlewares/ST/threadx/common/src/tx_event_flags_set.c **** 
  34:Middlewares/ST/threadx/common/src/tx_event_flags_set.c **** /**************************************************************************/
  35:Middlewares/ST/threadx/common/src/tx_event_flags_set.c **** /*                                                                        */
  36:Middlewares/ST/threadx/common/src/tx_event_flags_set.c **** /*  FUNCTION                                               RELEASE        */
  37:Middlewares/ST/threadx/common/src/tx_event_flags_set.c **** /*                                                                        */
  38:Middlewares/ST/threadx/common/src/tx_event_flags_set.c **** /*    _tx_event_flags_set                                 PORTABLE C      */
  39:Middlewares/ST/threadx/common/src/tx_event_flags_set.c **** /*                                                           6.1          */
  40:Middlewares/ST/threadx/common/src/tx_event_flags_set.c **** /*  AUTHOR                                                                */
  41:Middlewares/ST/threadx/common/src/tx_event_flags_set.c **** /*                                                                        */
  42:Middlewares/ST/threadx/common/src/tx_event_flags_set.c **** /*    William E. Lamie, Microsoft Corporation                             */
  43:Middlewares/ST/threadx/common/src/tx_event_flags_set.c **** /*                                                                        */
  44:Middlewares/ST/threadx/common/src/tx_event_flags_set.c **** /*  DESCRIPTION                                                           */
  45:Middlewares/ST/threadx/common/src/tx_event_flags_set.c **** /*                                                                        */
  46:Middlewares/ST/threadx/common/src/tx_event_flags_set.c **** /*    This function sets the specified flags in the event group based on  */
  47:Middlewares/ST/threadx/common/src/tx_event_flags_set.c **** /*    the set option specified.  All threads suspended on the group whose */
  48:Middlewares/ST/threadx/common/src/tx_event_flags_set.c **** /*    get request can now be satisfied are resumed.                       */
  49:Middlewares/ST/threadx/common/src/tx_event_flags_set.c **** /*                                                                        */
  50:Middlewares/ST/threadx/common/src/tx_event_flags_set.c **** /*  INPUT                                                                 */
  51:Middlewares/ST/threadx/common/src/tx_event_flags_set.c **** /*                                                                        */
  52:Middlewares/ST/threadx/common/src/tx_event_flags_set.c **** /*    group_ptr                         Pointer to group control block    */
  53:Middlewares/ST/threadx/common/src/tx_event_flags_set.c **** /*    flags_to_set                      Event flags to set                */
  54:Middlewares/ST/threadx/common/src/tx_event_flags_set.c **** /*    set_option                        Specified either AND or OR        */
  55:Middlewares/ST/threadx/common/src/tx_event_flags_set.c **** /*                                        operation on the event flags    */
  56:Middlewares/ST/threadx/common/src/tx_event_flags_set.c **** /*                                                                        */
  57:Middlewares/ST/threadx/common/src/tx_event_flags_set.c **** /*  OUTPUT                                                                */
  58:Middlewares/ST/threadx/common/src/tx_event_flags_set.c **** /*                                                                        */
  59:Middlewares/ST/threadx/common/src/tx_event_flags_set.c **** /*    TX_SUCCESS                        Always returns success            */
  60:Middlewares/ST/threadx/common/src/tx_event_flags_set.c **** /*                                                                        */
  61:Middlewares/ST/threadx/common/src/tx_event_flags_set.c **** /*  CALLS                                                                 */
  62:Middlewares/ST/threadx/common/src/tx_event_flags_set.c **** /*                                                                        */
  63:Middlewares/ST/threadx/common/src/tx_event_flags_set.c **** /*    _tx_thread_system_preempt_check   Check for preemption              */
  64:Middlewares/ST/threadx/common/src/tx_event_flags_set.c **** /*    _tx_thread_system_resume          Resume thread service             */
  65:Middlewares/ST/threadx/common/src/tx_event_flags_set.c **** /*    _tx_thread_system_ni_resume       Non-interruptable resume thread   */
  66:Middlewares/ST/threadx/common/src/tx_event_flags_set.c **** /*                                                                        */
  67:Middlewares/ST/threadx/common/src/tx_event_flags_set.c **** /*  CALLED BY                                                             */
  68:Middlewares/ST/threadx/common/src/tx_event_flags_set.c **** /*                                                                        */
  69:Middlewares/ST/threadx/common/src/tx_event_flags_set.c **** /*    Application Code                                                    */
  70:Middlewares/ST/threadx/common/src/tx_event_flags_set.c **** /*                                                                        */
  71:Middlewares/ST/threadx/common/src/tx_event_flags_set.c **** /*  RELEASE HISTORY                                                       */
  72:Middlewares/ST/threadx/common/src/tx_event_flags_set.c **** /*                                                                        */
  73:Middlewares/ST/threadx/common/src/tx_event_flags_set.c **** /*    DATE              NAME                      DESCRIPTION             */
  74:Middlewares/ST/threadx/common/src/tx_event_flags_set.c **** /*                                                                        */
  75:Middlewares/ST/threadx/common/src/tx_event_flags_set.c **** /*  05-19-2020     William E. Lamie         Initial Version 6.0           */
  76:Middlewares/ST/threadx/common/src/tx_event_flags_set.c **** /*  09-30-2020     Yuxin Zhou               Modified comment(s),          */
  77:Middlewares/ST/threadx/common/src/tx_event_flags_set.c **** /*                                            resulting in version 6.1    */
  78:Middlewares/ST/threadx/common/src/tx_event_flags_set.c **** /*                                                                        */
  79:Middlewares/ST/threadx/common/src/tx_event_flags_set.c **** /**************************************************************************/
  80:Middlewares/ST/threadx/common/src/tx_event_flags_set.c **** UINT  _tx_event_flags_set(TX_EVENT_FLAGS_GROUP *group_ptr, ULONG flags_to_set, UINT set_option)
  81:Middlewares/ST/threadx/common/src/tx_event_flags_set.c **** {
  30              		.loc 1 81 1 view -0
  31              		.cfi_startproc
  32              		@ args = 0, pretend = 0, frame = 8
  33              		@ frame_needed = 0, uses_anonymous_args = 0
  34              		.loc 1 81 1 is_stmt 0 view .LVU1
ARM GAS  /var/folders/pn/6vkv57yd1x9dxx59v7t3_slc0000gn/T//cc3QrNNe.s 			page 3


  35 0000 2DE9F04F 		push	{r4, r5, r6, r7, r8, r9, r10, fp, lr}
  36              	.LCFI0:
  37              		.cfi_def_cfa_offset 36
  38              		.cfi_offset 4, -36
  39              		.cfi_offset 5, -32
  40              		.cfi_offset 6, -28
  41              		.cfi_offset 7, -24
  42              		.cfi_offset 8, -20
  43              		.cfi_offset 9, -16
  44              		.cfi_offset 10, -12
  45              		.cfi_offset 11, -8
  46              		.cfi_offset 14, -4
  47 0004 83B0     		sub	sp, sp, #12
  48              	.LCFI1:
  49              		.cfi_def_cfa_offset 48
  50 0006 8446     		mov	ip, r0
  51 0008 0B46     		mov	r3, r1
  82:Middlewares/ST/threadx/common/src/tx_event_flags_set.c **** 
  83:Middlewares/ST/threadx/common/src/tx_event_flags_set.c **** TX_INTERRUPT_SAVE_AREA
  52              		.loc 1 83 1 is_stmt 1 view .LVU2
  84:Middlewares/ST/threadx/common/src/tx_event_flags_set.c **** 
  85:Middlewares/ST/threadx/common/src/tx_event_flags_set.c **** TX_THREAD       *thread_ptr;
  53              		.loc 1 85 1 view .LVU3
  86:Middlewares/ST/threadx/common/src/tx_event_flags_set.c **** TX_THREAD       *next_thread_ptr;
  54              		.loc 1 86 1 view .LVU4
  87:Middlewares/ST/threadx/common/src/tx_event_flags_set.c **** TX_THREAD       *next_thread;
  55              		.loc 1 87 1 view .LVU5
  88:Middlewares/ST/threadx/common/src/tx_event_flags_set.c **** TX_THREAD       *previous_thread;
  56              		.loc 1 88 1 view .LVU6
  89:Middlewares/ST/threadx/common/src/tx_event_flags_set.c **** TX_THREAD       *satisfied_list;
  57              		.loc 1 89 1 view .LVU7
  90:Middlewares/ST/threadx/common/src/tx_event_flags_set.c **** TX_THREAD       *last_satisfied;
  58              		.loc 1 90 1 view .LVU8
  91:Middlewares/ST/threadx/common/src/tx_event_flags_set.c **** TX_THREAD       *suspended_list;
  59              		.loc 1 91 1 view .LVU9
  92:Middlewares/ST/threadx/common/src/tx_event_flags_set.c **** UINT            suspended_count;
  60              		.loc 1 92 1 view .LVU10
  93:Middlewares/ST/threadx/common/src/tx_event_flags_set.c **** ULONG           current_event_flags;
  61              		.loc 1 93 1 view .LVU11
  94:Middlewares/ST/threadx/common/src/tx_event_flags_set.c **** ULONG           requested_flags;
  62              		.loc 1 94 1 view .LVU12
  95:Middlewares/ST/threadx/common/src/tx_event_flags_set.c **** ULONG           flags_satisfied;
  63              		.loc 1 95 1 view .LVU13
  96:Middlewares/ST/threadx/common/src/tx_event_flags_set.c **** ULONG           *suspend_info_ptr;
  64              		.loc 1 96 1 view .LVU14
  97:Middlewares/ST/threadx/common/src/tx_event_flags_set.c **** UINT            and_request;
  65              		.loc 1 97 1 view .LVU15
  98:Middlewares/ST/threadx/common/src/tx_event_flags_set.c **** UINT            get_option;
  66              		.loc 1 98 1 view .LVU16
  99:Middlewares/ST/threadx/common/src/tx_event_flags_set.c **** UINT            clear_request;
  67              		.loc 1 99 1 view .LVU17
 100:Middlewares/ST/threadx/common/src/tx_event_flags_set.c **** UINT            preempt_check;
  68              		.loc 1 100 1 view .LVU18
 101:Middlewares/ST/threadx/common/src/tx_event_flags_set.c **** #ifndef TX_NOT_INTERRUPTABLE
 102:Middlewares/ST/threadx/common/src/tx_event_flags_set.c **** UINT            interrupted_set_request;
  69              		.loc 1 102 1 view .LVU19
 103:Middlewares/ST/threadx/common/src/tx_event_flags_set.c **** #endif
ARM GAS  /var/folders/pn/6vkv57yd1x9dxx59v7t3_slc0000gn/T//cc3QrNNe.s 			page 4


 104:Middlewares/ST/threadx/common/src/tx_event_flags_set.c **** #ifndef TX_DISABLE_NOTIFY_CALLBACKS
 105:Middlewares/ST/threadx/common/src/tx_event_flags_set.c **** VOID            (*events_set_notify)(struct TX_EVENT_FLAGS_GROUP_STRUCT *notify_group_ptr);
 106:Middlewares/ST/threadx/common/src/tx_event_flags_set.c **** #endif
 107:Middlewares/ST/threadx/common/src/tx_event_flags_set.c **** 
 108:Middlewares/ST/threadx/common/src/tx_event_flags_set.c **** 
 109:Middlewares/ST/threadx/common/src/tx_event_flags_set.c ****     /* Disable interrupts to remove the semaphore from the created list.  */
 110:Middlewares/ST/threadx/common/src/tx_event_flags_set.c ****     TX_DISABLE
  70              		.loc 1 110 5 view .LVU20
  71              	.LBB36:
  72              	.LBI36:
  73              		.file 2 "Middlewares/ST/threadx/ports/cortex_m4/gnu/inc/tx_port.h"
   1:Middlewares/ST/threadx/ports/cortex_m4/gnu/inc/tx_port.h **** /**************************************************************************/
   2:Middlewares/ST/threadx/ports/cortex_m4/gnu/inc/tx_port.h **** /*                                                                        */
   3:Middlewares/ST/threadx/ports/cortex_m4/gnu/inc/tx_port.h **** /*       Copyright (c) Microsoft Corporation. All rights reserved.        */
   4:Middlewares/ST/threadx/ports/cortex_m4/gnu/inc/tx_port.h **** /*                                                                        */
   5:Middlewares/ST/threadx/ports/cortex_m4/gnu/inc/tx_port.h **** /*       This software is licensed under the Microsoft Software License   */
   6:Middlewares/ST/threadx/ports/cortex_m4/gnu/inc/tx_port.h **** /*       Terms for Microsoft Azure RTOS. Full text of the license can be  */
   7:Middlewares/ST/threadx/ports/cortex_m4/gnu/inc/tx_port.h **** /*       found in the LICENSE file at https://aka.ms/AzureRTOS_EULA       */
   8:Middlewares/ST/threadx/ports/cortex_m4/gnu/inc/tx_port.h **** /*       and in the root directory of this software.                      */
   9:Middlewares/ST/threadx/ports/cortex_m4/gnu/inc/tx_port.h **** /*                                                                        */
  10:Middlewares/ST/threadx/ports/cortex_m4/gnu/inc/tx_port.h **** /**************************************************************************/
  11:Middlewares/ST/threadx/ports/cortex_m4/gnu/inc/tx_port.h **** 
  12:Middlewares/ST/threadx/ports/cortex_m4/gnu/inc/tx_port.h **** 
  13:Middlewares/ST/threadx/ports/cortex_m4/gnu/inc/tx_port.h **** /**************************************************************************/
  14:Middlewares/ST/threadx/ports/cortex_m4/gnu/inc/tx_port.h **** /**************************************************************************/
  15:Middlewares/ST/threadx/ports/cortex_m4/gnu/inc/tx_port.h **** /**                                                                       */
  16:Middlewares/ST/threadx/ports/cortex_m4/gnu/inc/tx_port.h **** /** ThreadX Component                                                     */
  17:Middlewares/ST/threadx/ports/cortex_m4/gnu/inc/tx_port.h **** /**                                                                       */
  18:Middlewares/ST/threadx/ports/cortex_m4/gnu/inc/tx_port.h **** /**   Port Specific                                                       */
  19:Middlewares/ST/threadx/ports/cortex_m4/gnu/inc/tx_port.h **** /**                                                                       */
  20:Middlewares/ST/threadx/ports/cortex_m4/gnu/inc/tx_port.h **** /**************************************************************************/
  21:Middlewares/ST/threadx/ports/cortex_m4/gnu/inc/tx_port.h **** /**************************************************************************/
  22:Middlewares/ST/threadx/ports/cortex_m4/gnu/inc/tx_port.h **** 
  23:Middlewares/ST/threadx/ports/cortex_m4/gnu/inc/tx_port.h **** 
  24:Middlewares/ST/threadx/ports/cortex_m4/gnu/inc/tx_port.h **** /**************************************************************************/
  25:Middlewares/ST/threadx/ports/cortex_m4/gnu/inc/tx_port.h **** /*                                                                        */
  26:Middlewares/ST/threadx/ports/cortex_m4/gnu/inc/tx_port.h **** /*  PORT SPECIFIC C INFORMATION                            RELEASE        */
  27:Middlewares/ST/threadx/ports/cortex_m4/gnu/inc/tx_port.h **** /*                                                                        */
  28:Middlewares/ST/threadx/ports/cortex_m4/gnu/inc/tx_port.h **** /*    tx_port.h                                         Cortex-M4/GNU     */
  29:Middlewares/ST/threadx/ports/cortex_m4/gnu/inc/tx_port.h **** /*                                                           6.1.10       */
  30:Middlewares/ST/threadx/ports/cortex_m4/gnu/inc/tx_port.h **** /*                                                                        */
  31:Middlewares/ST/threadx/ports/cortex_m4/gnu/inc/tx_port.h **** /*  AUTHOR                                                                */
  32:Middlewares/ST/threadx/ports/cortex_m4/gnu/inc/tx_port.h **** /*                                                                        */
  33:Middlewares/ST/threadx/ports/cortex_m4/gnu/inc/tx_port.h **** /*    Scott Larson, Microsoft Corporation                                 */
  34:Middlewares/ST/threadx/ports/cortex_m4/gnu/inc/tx_port.h **** /*                                                                        */
  35:Middlewares/ST/threadx/ports/cortex_m4/gnu/inc/tx_port.h **** /*  DESCRIPTION                                                           */
  36:Middlewares/ST/threadx/ports/cortex_m4/gnu/inc/tx_port.h **** /*                                                                        */
  37:Middlewares/ST/threadx/ports/cortex_m4/gnu/inc/tx_port.h **** /*    This file contains data type definitions that make the ThreadX      */
  38:Middlewares/ST/threadx/ports/cortex_m4/gnu/inc/tx_port.h **** /*    real-time kernel function identically on a variety of different     */
  39:Middlewares/ST/threadx/ports/cortex_m4/gnu/inc/tx_port.h **** /*    processor architectures.  For example, the size or number of bits   */
  40:Middlewares/ST/threadx/ports/cortex_m4/gnu/inc/tx_port.h **** /*    in an "int" data type vary between microprocessor architectures and */
  41:Middlewares/ST/threadx/ports/cortex_m4/gnu/inc/tx_port.h **** /*    even C compilers for the same microprocessor.  ThreadX does not     */
  42:Middlewares/ST/threadx/ports/cortex_m4/gnu/inc/tx_port.h **** /*    directly use native C data types.  Instead, ThreadX creates its     */
  43:Middlewares/ST/threadx/ports/cortex_m4/gnu/inc/tx_port.h **** /*    own special types that can be mapped to actual data types by this   */
  44:Middlewares/ST/threadx/ports/cortex_m4/gnu/inc/tx_port.h **** /*    file to guarantee consistency in the interface and functionality.   */
  45:Middlewares/ST/threadx/ports/cortex_m4/gnu/inc/tx_port.h **** /*                                                                        */
  46:Middlewares/ST/threadx/ports/cortex_m4/gnu/inc/tx_port.h **** /*    This file replaces the previous Cortex-M3/M4/M7 files. It unifies   */
ARM GAS  /var/folders/pn/6vkv57yd1x9dxx59v7t3_slc0000gn/T//cc3QrNNe.s 			page 5


  47:Middlewares/ST/threadx/ports/cortex_m4/gnu/inc/tx_port.h **** /*    the ARMv7-M architecture and compilers into one common file.        */
  48:Middlewares/ST/threadx/ports/cortex_m4/gnu/inc/tx_port.h **** /*                                                                        */
  49:Middlewares/ST/threadx/ports/cortex_m4/gnu/inc/tx_port.h **** /*  RELEASE HISTORY                                                       */
  50:Middlewares/ST/threadx/ports/cortex_m4/gnu/inc/tx_port.h **** /*                                                                        */
  51:Middlewares/ST/threadx/ports/cortex_m4/gnu/inc/tx_port.h **** /*    DATE              NAME                      DESCRIPTION             */
  52:Middlewares/ST/threadx/ports/cortex_m4/gnu/inc/tx_port.h **** /*                                                                        */
  53:Middlewares/ST/threadx/ports/cortex_m4/gnu/inc/tx_port.h **** /*  06-02-2021      Scott Larson            Initial Version 6.1.7         */
  54:Middlewares/ST/threadx/ports/cortex_m4/gnu/inc/tx_port.h **** /*  01-31-2022      Scott Larson            Modified comments, updated    */
  55:Middlewares/ST/threadx/ports/cortex_m4/gnu/inc/tx_port.h **** /*                                            typedef to fix misra        */
  56:Middlewares/ST/threadx/ports/cortex_m4/gnu/inc/tx_port.h **** /*                                            violation,                  */
  57:Middlewares/ST/threadx/ports/cortex_m4/gnu/inc/tx_port.h **** /*                                            fixed predefined macro,     */
  58:Middlewares/ST/threadx/ports/cortex_m4/gnu/inc/tx_port.h **** /*                                            resulting in version 6.1.10 */
  59:Middlewares/ST/threadx/ports/cortex_m4/gnu/inc/tx_port.h **** /*                                                                        */
  60:Middlewares/ST/threadx/ports/cortex_m4/gnu/inc/tx_port.h **** /**************************************************************************/
  61:Middlewares/ST/threadx/ports/cortex_m4/gnu/inc/tx_port.h **** 
  62:Middlewares/ST/threadx/ports/cortex_m4/gnu/inc/tx_port.h **** #ifndef TX_PORT_H
  63:Middlewares/ST/threadx/ports/cortex_m4/gnu/inc/tx_port.h **** #define TX_PORT_H
  64:Middlewares/ST/threadx/ports/cortex_m4/gnu/inc/tx_port.h **** 
  65:Middlewares/ST/threadx/ports/cortex_m4/gnu/inc/tx_port.h **** 
  66:Middlewares/ST/threadx/ports/cortex_m4/gnu/inc/tx_port.h **** /* Determine if the optional ThreadX user define file should be used.  */
  67:Middlewares/ST/threadx/ports/cortex_m4/gnu/inc/tx_port.h **** 
  68:Middlewares/ST/threadx/ports/cortex_m4/gnu/inc/tx_port.h **** #ifdef TX_INCLUDE_USER_DEFINE_FILE
  69:Middlewares/ST/threadx/ports/cortex_m4/gnu/inc/tx_port.h **** 
  70:Middlewares/ST/threadx/ports/cortex_m4/gnu/inc/tx_port.h **** /* Yes, include the user defines in tx_user.h. The defines in this file may
  71:Middlewares/ST/threadx/ports/cortex_m4/gnu/inc/tx_port.h ****    alternately be defined on the command line.  */
  72:Middlewares/ST/threadx/ports/cortex_m4/gnu/inc/tx_port.h **** 
  73:Middlewares/ST/threadx/ports/cortex_m4/gnu/inc/tx_port.h **** #include "tx_user.h"
  74:Middlewares/ST/threadx/ports/cortex_m4/gnu/inc/tx_port.h **** #endif
  75:Middlewares/ST/threadx/ports/cortex_m4/gnu/inc/tx_port.h **** 
  76:Middlewares/ST/threadx/ports/cortex_m4/gnu/inc/tx_port.h **** 
  77:Middlewares/ST/threadx/ports/cortex_m4/gnu/inc/tx_port.h **** /* Define compiler library include files.  */
  78:Middlewares/ST/threadx/ports/cortex_m4/gnu/inc/tx_port.h **** 
  79:Middlewares/ST/threadx/ports/cortex_m4/gnu/inc/tx_port.h **** #include <stdlib.h>
  80:Middlewares/ST/threadx/ports/cortex_m4/gnu/inc/tx_port.h **** #include <string.h>
  81:Middlewares/ST/threadx/ports/cortex_m4/gnu/inc/tx_port.h **** 
  82:Middlewares/ST/threadx/ports/cortex_m4/gnu/inc/tx_port.h **** #ifdef __ICCARM__
  83:Middlewares/ST/threadx/ports/cortex_m4/gnu/inc/tx_port.h **** #include <intrinsics.h>                     /* IAR Intrinsics */
  84:Middlewares/ST/threadx/ports/cortex_m4/gnu/inc/tx_port.h **** #define __asm__ __asm                       /* Define to make all inline asm look similar */
  85:Middlewares/ST/threadx/ports/cortex_m4/gnu/inc/tx_port.h **** #ifdef  TX_ENABLE_IAR_LIBRARY_SUPPORT
  86:Middlewares/ST/threadx/ports/cortex_m4/gnu/inc/tx_port.h **** #include <yvals.h>
  87:Middlewares/ST/threadx/ports/cortex_m4/gnu/inc/tx_port.h **** #endif
  88:Middlewares/ST/threadx/ports/cortex_m4/gnu/inc/tx_port.h **** #endif /* __ICCARM__ */
  89:Middlewares/ST/threadx/ports/cortex_m4/gnu/inc/tx_port.h **** 
  90:Middlewares/ST/threadx/ports/cortex_m4/gnu/inc/tx_port.h **** #ifdef __ghs__
  91:Middlewares/ST/threadx/ports/cortex_m4/gnu/inc/tx_port.h **** #include <arm_ghs.h>
  92:Middlewares/ST/threadx/ports/cortex_m4/gnu/inc/tx_port.h **** #include "tx_ghs.h"
  93:Middlewares/ST/threadx/ports/cortex_m4/gnu/inc/tx_port.h **** #endif  /* __ghs__ */
  94:Middlewares/ST/threadx/ports/cortex_m4/gnu/inc/tx_port.h **** 
  95:Middlewares/ST/threadx/ports/cortex_m4/gnu/inc/tx_port.h **** 
  96:Middlewares/ST/threadx/ports/cortex_m4/gnu/inc/tx_port.h **** #if !defined(__GNUC__) && !defined(__CC_ARM)
  97:Middlewares/ST/threadx/ports/cortex_m4/gnu/inc/tx_port.h **** #define __get_control_value __get_CONTROL
  98:Middlewares/ST/threadx/ports/cortex_m4/gnu/inc/tx_port.h **** #define __set_control_value __set_CONTROL
  99:Middlewares/ST/threadx/ports/cortex_m4/gnu/inc/tx_port.h **** #endif
 100:Middlewares/ST/threadx/ports/cortex_m4/gnu/inc/tx_port.h **** 
 101:Middlewares/ST/threadx/ports/cortex_m4/gnu/inc/tx_port.h **** #ifndef __GNUC__
 102:Middlewares/ST/threadx/ports/cortex_m4/gnu/inc/tx_port.h **** #define __get_ipsr_value __get_IPSR
 103:Middlewares/ST/threadx/ports/cortex_m4/gnu/inc/tx_port.h **** #endif
ARM GAS  /var/folders/pn/6vkv57yd1x9dxx59v7t3_slc0000gn/T//cc3QrNNe.s 			page 6


 104:Middlewares/ST/threadx/ports/cortex_m4/gnu/inc/tx_port.h **** 
 105:Middlewares/ST/threadx/ports/cortex_m4/gnu/inc/tx_port.h **** /* Define ThreadX basic types for this port.  */
 106:Middlewares/ST/threadx/ports/cortex_m4/gnu/inc/tx_port.h **** 
 107:Middlewares/ST/threadx/ports/cortex_m4/gnu/inc/tx_port.h **** #define VOID                                    void
 108:Middlewares/ST/threadx/ports/cortex_m4/gnu/inc/tx_port.h **** typedef char                                    CHAR;
 109:Middlewares/ST/threadx/ports/cortex_m4/gnu/inc/tx_port.h **** typedef unsigned char                           UCHAR;
 110:Middlewares/ST/threadx/ports/cortex_m4/gnu/inc/tx_port.h **** typedef int                                     INT;
 111:Middlewares/ST/threadx/ports/cortex_m4/gnu/inc/tx_port.h **** typedef unsigned int                            UINT;
 112:Middlewares/ST/threadx/ports/cortex_m4/gnu/inc/tx_port.h **** typedef long                                    LONG;
 113:Middlewares/ST/threadx/ports/cortex_m4/gnu/inc/tx_port.h **** typedef unsigned long                           ULONG;
 114:Middlewares/ST/threadx/ports/cortex_m4/gnu/inc/tx_port.h **** typedef unsigned long long                      ULONG64;
 115:Middlewares/ST/threadx/ports/cortex_m4/gnu/inc/tx_port.h **** typedef short                                   SHORT;
 116:Middlewares/ST/threadx/ports/cortex_m4/gnu/inc/tx_port.h **** typedef unsigned short                          USHORT;
 117:Middlewares/ST/threadx/ports/cortex_m4/gnu/inc/tx_port.h **** #define ULONG64_DEFINED
 118:Middlewares/ST/threadx/ports/cortex_m4/gnu/inc/tx_port.h **** 
 119:Middlewares/ST/threadx/ports/cortex_m4/gnu/inc/tx_port.h **** /* Define the priority levels for ThreadX.  Legal values range
 120:Middlewares/ST/threadx/ports/cortex_m4/gnu/inc/tx_port.h ****    from 32 to 1024 and MUST be evenly divisible by 32.  */
 121:Middlewares/ST/threadx/ports/cortex_m4/gnu/inc/tx_port.h **** 
 122:Middlewares/ST/threadx/ports/cortex_m4/gnu/inc/tx_port.h **** #ifndef TX_MAX_PRIORITIES
 123:Middlewares/ST/threadx/ports/cortex_m4/gnu/inc/tx_port.h **** #define TX_MAX_PRIORITIES                       32
 124:Middlewares/ST/threadx/ports/cortex_m4/gnu/inc/tx_port.h **** #endif
 125:Middlewares/ST/threadx/ports/cortex_m4/gnu/inc/tx_port.h **** 
 126:Middlewares/ST/threadx/ports/cortex_m4/gnu/inc/tx_port.h **** 
 127:Middlewares/ST/threadx/ports/cortex_m4/gnu/inc/tx_port.h **** /* Define the minimum stack for a ThreadX thread on this processor. If the size supplied during
 128:Middlewares/ST/threadx/ports/cortex_m4/gnu/inc/tx_port.h ****    thread creation is less than this value, the thread create call will return an error.  */
 129:Middlewares/ST/threadx/ports/cortex_m4/gnu/inc/tx_port.h **** 
 130:Middlewares/ST/threadx/ports/cortex_m4/gnu/inc/tx_port.h **** #ifndef TX_MINIMUM_STACK
 131:Middlewares/ST/threadx/ports/cortex_m4/gnu/inc/tx_port.h **** #define TX_MINIMUM_STACK                        200         /* Minimum stack size for this port  */
 132:Middlewares/ST/threadx/ports/cortex_m4/gnu/inc/tx_port.h **** #endif
 133:Middlewares/ST/threadx/ports/cortex_m4/gnu/inc/tx_port.h **** 
 134:Middlewares/ST/threadx/ports/cortex_m4/gnu/inc/tx_port.h **** 
 135:Middlewares/ST/threadx/ports/cortex_m4/gnu/inc/tx_port.h **** /* Define the system timer thread's default stack size and priority.  These are only applicable
 136:Middlewares/ST/threadx/ports/cortex_m4/gnu/inc/tx_port.h ****    if TX_TIMER_PROCESS_IN_ISR is not defined.  */
 137:Middlewares/ST/threadx/ports/cortex_m4/gnu/inc/tx_port.h **** 
 138:Middlewares/ST/threadx/ports/cortex_m4/gnu/inc/tx_port.h **** #ifndef TX_TIMER_THREAD_STACK_SIZE
 139:Middlewares/ST/threadx/ports/cortex_m4/gnu/inc/tx_port.h **** #define TX_TIMER_THREAD_STACK_SIZE              1024        /* Default timer thread stack size  */
 140:Middlewares/ST/threadx/ports/cortex_m4/gnu/inc/tx_port.h **** #endif
 141:Middlewares/ST/threadx/ports/cortex_m4/gnu/inc/tx_port.h **** 
 142:Middlewares/ST/threadx/ports/cortex_m4/gnu/inc/tx_port.h **** #ifndef TX_TIMER_THREAD_PRIORITY
 143:Middlewares/ST/threadx/ports/cortex_m4/gnu/inc/tx_port.h **** #define TX_TIMER_THREAD_PRIORITY                0           /* Default timer thread priority    */
 144:Middlewares/ST/threadx/ports/cortex_m4/gnu/inc/tx_port.h **** #endif
 145:Middlewares/ST/threadx/ports/cortex_m4/gnu/inc/tx_port.h **** 
 146:Middlewares/ST/threadx/ports/cortex_m4/gnu/inc/tx_port.h **** 
 147:Middlewares/ST/threadx/ports/cortex_m4/gnu/inc/tx_port.h **** /* Define various constants for the ThreadX Cortex-M port.  */
 148:Middlewares/ST/threadx/ports/cortex_m4/gnu/inc/tx_port.h **** 
 149:Middlewares/ST/threadx/ports/cortex_m4/gnu/inc/tx_port.h **** #define TX_INT_DISABLE                          1           /* Disable interrupts               */
 150:Middlewares/ST/threadx/ports/cortex_m4/gnu/inc/tx_port.h **** #define TX_INT_ENABLE                           0           /* Enable interrupts                */
 151:Middlewares/ST/threadx/ports/cortex_m4/gnu/inc/tx_port.h **** 
 152:Middlewares/ST/threadx/ports/cortex_m4/gnu/inc/tx_port.h **** 
 153:Middlewares/ST/threadx/ports/cortex_m4/gnu/inc/tx_port.h **** /* Define the clock source for trace event entry time stamp. The following two item are port specif
 154:Middlewares/ST/threadx/ports/cortex_m4/gnu/inc/tx_port.h ****    For example, if the time source is at the address 0x0a800024 and is 16-bits in size, the clock
 155:Middlewares/ST/threadx/ports/cortex_m4/gnu/inc/tx_port.h ****    source constants would be:
 156:Middlewares/ST/threadx/ports/cortex_m4/gnu/inc/tx_port.h **** 
 157:Middlewares/ST/threadx/ports/cortex_m4/gnu/inc/tx_port.h **** #define TX_TRACE_TIME_SOURCE                    *((ULONG *) 0x0a800024)
 158:Middlewares/ST/threadx/ports/cortex_m4/gnu/inc/tx_port.h **** #define TX_TRACE_TIME_MASK                      0x0000FFFFUL
 159:Middlewares/ST/threadx/ports/cortex_m4/gnu/inc/tx_port.h **** 
 160:Middlewares/ST/threadx/ports/cortex_m4/gnu/inc/tx_port.h **** */
ARM GAS  /var/folders/pn/6vkv57yd1x9dxx59v7t3_slc0000gn/T//cc3QrNNe.s 			page 7


 161:Middlewares/ST/threadx/ports/cortex_m4/gnu/inc/tx_port.h **** 
 162:Middlewares/ST/threadx/ports/cortex_m4/gnu/inc/tx_port.h **** #ifndef TX_MISRA_ENABLE
 163:Middlewares/ST/threadx/ports/cortex_m4/gnu/inc/tx_port.h **** #ifndef TX_TRACE_TIME_SOURCE
 164:Middlewares/ST/threadx/ports/cortex_m4/gnu/inc/tx_port.h **** #define TX_TRACE_TIME_SOURCE                    *((ULONG *) 0xE0001004)
 165:Middlewares/ST/threadx/ports/cortex_m4/gnu/inc/tx_port.h **** #endif
 166:Middlewares/ST/threadx/ports/cortex_m4/gnu/inc/tx_port.h **** #else
 167:Middlewares/ST/threadx/ports/cortex_m4/gnu/inc/tx_port.h **** ULONG   _tx_misra_time_stamp_get(VOID);
 168:Middlewares/ST/threadx/ports/cortex_m4/gnu/inc/tx_port.h **** #define TX_TRACE_TIME_SOURCE                    _tx_misra_time_stamp_get()
 169:Middlewares/ST/threadx/ports/cortex_m4/gnu/inc/tx_port.h **** #endif
 170:Middlewares/ST/threadx/ports/cortex_m4/gnu/inc/tx_port.h **** 
 171:Middlewares/ST/threadx/ports/cortex_m4/gnu/inc/tx_port.h **** #ifndef TX_TRACE_TIME_MASK
 172:Middlewares/ST/threadx/ports/cortex_m4/gnu/inc/tx_port.h **** #define TX_TRACE_TIME_MASK                      0xFFFFFFFFUL
 173:Middlewares/ST/threadx/ports/cortex_m4/gnu/inc/tx_port.h **** #endif
 174:Middlewares/ST/threadx/ports/cortex_m4/gnu/inc/tx_port.h **** 
 175:Middlewares/ST/threadx/ports/cortex_m4/gnu/inc/tx_port.h **** #ifdef __ghs__
 176:Middlewares/ST/threadx/ports/cortex_m4/gnu/inc/tx_port.h **** /* Define constants for Green Hills EventAnalyzer.  */
 177:Middlewares/ST/threadx/ports/cortex_m4/gnu/inc/tx_port.h **** 
 178:Middlewares/ST/threadx/ports/cortex_m4/gnu/inc/tx_port.h **** /* Define the number of ticks per second. This informs the EventAnalyzer what the timestamps
 179:Middlewares/ST/threadx/ports/cortex_m4/gnu/inc/tx_port.h ****    represent.  By default, this is set to 1,000,000 i.e., one tick every microsecond. */
 180:Middlewares/ST/threadx/ports/cortex_m4/gnu/inc/tx_port.h **** 
 181:Middlewares/ST/threadx/ports/cortex_m4/gnu/inc/tx_port.h **** #define TX_EL_TICKS_PER_SECOND                  1000000
 182:Middlewares/ST/threadx/ports/cortex_m4/gnu/inc/tx_port.h **** 
 183:Middlewares/ST/threadx/ports/cortex_m4/gnu/inc/tx_port.h **** /* Define the method of how to get the upper and lower 32-bits of the time stamp. By default, simpl
 184:Middlewares/ST/threadx/ports/cortex_m4/gnu/inc/tx_port.h ****    simulate the time-stamp source with a counter.  */
 185:Middlewares/ST/threadx/ports/cortex_m4/gnu/inc/tx_port.h **** 
 186:Middlewares/ST/threadx/ports/cortex_m4/gnu/inc/tx_port.h **** #define read_tbu()                              _tx_el_time_base_upper
 187:Middlewares/ST/threadx/ports/cortex_m4/gnu/inc/tx_port.h **** #define read_tbl()                              ++_tx_el_time_base_lower
 188:Middlewares/ST/threadx/ports/cortex_m4/gnu/inc/tx_port.h **** #endif  /* __ghs__ */
 189:Middlewares/ST/threadx/ports/cortex_m4/gnu/inc/tx_port.h **** 
 190:Middlewares/ST/threadx/ports/cortex_m4/gnu/inc/tx_port.h **** /* Define the port specific options for the _tx_build_options variable. This variable indicates
 191:Middlewares/ST/threadx/ports/cortex_m4/gnu/inc/tx_port.h ****    how the ThreadX library was built.  */
 192:Middlewares/ST/threadx/ports/cortex_m4/gnu/inc/tx_port.h **** 
 193:Middlewares/ST/threadx/ports/cortex_m4/gnu/inc/tx_port.h **** #define TX_PORT_SPECIFIC_BUILD_OPTIONS          (0)
 194:Middlewares/ST/threadx/ports/cortex_m4/gnu/inc/tx_port.h **** 
 195:Middlewares/ST/threadx/ports/cortex_m4/gnu/inc/tx_port.h **** 
 196:Middlewares/ST/threadx/ports/cortex_m4/gnu/inc/tx_port.h **** /* Define the in-line initialization constant so that modules with in-line
 197:Middlewares/ST/threadx/ports/cortex_m4/gnu/inc/tx_port.h ****    initialization capabilities can prevent their initialization from being
 198:Middlewares/ST/threadx/ports/cortex_m4/gnu/inc/tx_port.h ****    a function call.  */
 199:Middlewares/ST/threadx/ports/cortex_m4/gnu/inc/tx_port.h **** 
 200:Middlewares/ST/threadx/ports/cortex_m4/gnu/inc/tx_port.h **** #ifdef TX_MISRA_ENABLE
 201:Middlewares/ST/threadx/ports/cortex_m4/gnu/inc/tx_port.h **** #define TX_DISABLE_INLINE
 202:Middlewares/ST/threadx/ports/cortex_m4/gnu/inc/tx_port.h **** #else
 203:Middlewares/ST/threadx/ports/cortex_m4/gnu/inc/tx_port.h **** #define TX_INLINE_INITIALIZATION
 204:Middlewares/ST/threadx/ports/cortex_m4/gnu/inc/tx_port.h **** #endif
 205:Middlewares/ST/threadx/ports/cortex_m4/gnu/inc/tx_port.h **** 
 206:Middlewares/ST/threadx/ports/cortex_m4/gnu/inc/tx_port.h **** 
 207:Middlewares/ST/threadx/ports/cortex_m4/gnu/inc/tx_port.h **** /* Determine whether or not stack checking is enabled. By default, ThreadX stack checking is
 208:Middlewares/ST/threadx/ports/cortex_m4/gnu/inc/tx_port.h ****    disabled. When the following is defined, ThreadX thread stack checking is enabled.  If stack
 209:Middlewares/ST/threadx/ports/cortex_m4/gnu/inc/tx_port.h ****    checking is enabled (TX_ENABLE_STACK_CHECKING is defined), the TX_DISABLE_STACK_FILLING
 210:Middlewares/ST/threadx/ports/cortex_m4/gnu/inc/tx_port.h ****    define is negated, thereby forcing the stack fill which is necessary for the stack checking
 211:Middlewares/ST/threadx/ports/cortex_m4/gnu/inc/tx_port.h ****    logic.  */
 212:Middlewares/ST/threadx/ports/cortex_m4/gnu/inc/tx_port.h **** 
 213:Middlewares/ST/threadx/ports/cortex_m4/gnu/inc/tx_port.h **** #ifndef TX_MISRA_ENABLE
 214:Middlewares/ST/threadx/ports/cortex_m4/gnu/inc/tx_port.h **** #ifdef TX_ENABLE_STACK_CHECKING
 215:Middlewares/ST/threadx/ports/cortex_m4/gnu/inc/tx_port.h **** #undef TX_DISABLE_STACK_FILLING
 216:Middlewares/ST/threadx/ports/cortex_m4/gnu/inc/tx_port.h **** #endif
 217:Middlewares/ST/threadx/ports/cortex_m4/gnu/inc/tx_port.h **** #endif
ARM GAS  /var/folders/pn/6vkv57yd1x9dxx59v7t3_slc0000gn/T//cc3QrNNe.s 			page 8


 218:Middlewares/ST/threadx/ports/cortex_m4/gnu/inc/tx_port.h **** 
 219:Middlewares/ST/threadx/ports/cortex_m4/gnu/inc/tx_port.h **** 
 220:Middlewares/ST/threadx/ports/cortex_m4/gnu/inc/tx_port.h **** /* Define the TX_THREAD control block extensions for this port. The main reason
 221:Middlewares/ST/threadx/ports/cortex_m4/gnu/inc/tx_port.h ****    for the multiple macros is so that backward compatibility can be maintained with
 222:Middlewares/ST/threadx/ports/cortex_m4/gnu/inc/tx_port.h ****    existing ThreadX kernel awareness modules.  */
 223:Middlewares/ST/threadx/ports/cortex_m4/gnu/inc/tx_port.h **** 
 224:Middlewares/ST/threadx/ports/cortex_m4/gnu/inc/tx_port.h **** #define TX_THREAD_EXTENSION_0
 225:Middlewares/ST/threadx/ports/cortex_m4/gnu/inc/tx_port.h **** #define TX_THREAD_EXTENSION_1
 226:Middlewares/ST/threadx/ports/cortex_m4/gnu/inc/tx_port.h **** #ifdef  TX_ENABLE_IAR_LIBRARY_SUPPORT
 227:Middlewares/ST/threadx/ports/cortex_m4/gnu/inc/tx_port.h **** #define TX_THREAD_EXTENSION_2           VOID    *tx_thread_iar_tls_pointer;
 228:Middlewares/ST/threadx/ports/cortex_m4/gnu/inc/tx_port.h **** #elif defined(__ghs__)
 229:Middlewares/ST/threadx/ports/cortex_m4/gnu/inc/tx_port.h **** #define TX_THREAD_EXTENSION_2           VOID *  tx_thread_eh_globals;                           \
 230:Middlewares/ST/threadx/ports/cortex_m4/gnu/inc/tx_port.h ****                                         int     Errno;             /* errno.  */                \
 231:Middlewares/ST/threadx/ports/cortex_m4/gnu/inc/tx_port.h ****                                         char *  strtok_saved_pos;  /* strtok() position.  */
 232:Middlewares/ST/threadx/ports/cortex_m4/gnu/inc/tx_port.h **** #else
 233:Middlewares/ST/threadx/ports/cortex_m4/gnu/inc/tx_port.h **** #define TX_THREAD_EXTENSION_2
 234:Middlewares/ST/threadx/ports/cortex_m4/gnu/inc/tx_port.h **** #endif
 235:Middlewares/ST/threadx/ports/cortex_m4/gnu/inc/tx_port.h **** 
 236:Middlewares/ST/threadx/ports/cortex_m4/gnu/inc/tx_port.h **** 
 237:Middlewares/ST/threadx/ports/cortex_m4/gnu/inc/tx_port.h **** #define TX_THREAD_EXTENSION_3
 238:Middlewares/ST/threadx/ports/cortex_m4/gnu/inc/tx_port.h **** 
 239:Middlewares/ST/threadx/ports/cortex_m4/gnu/inc/tx_port.h **** 
 240:Middlewares/ST/threadx/ports/cortex_m4/gnu/inc/tx_port.h **** 
 241:Middlewares/ST/threadx/ports/cortex_m4/gnu/inc/tx_port.h **** /* Define the port extensions of the remaining ThreadX objects.  */
 242:Middlewares/ST/threadx/ports/cortex_m4/gnu/inc/tx_port.h **** 
 243:Middlewares/ST/threadx/ports/cortex_m4/gnu/inc/tx_port.h **** #define TX_BLOCK_POOL_EXTENSION
 244:Middlewares/ST/threadx/ports/cortex_m4/gnu/inc/tx_port.h **** #define TX_BYTE_POOL_EXTENSION
 245:Middlewares/ST/threadx/ports/cortex_m4/gnu/inc/tx_port.h **** #define TX_EVENT_FLAGS_GROUP_EXTENSION
 246:Middlewares/ST/threadx/ports/cortex_m4/gnu/inc/tx_port.h **** #define TX_MUTEX_EXTENSION
 247:Middlewares/ST/threadx/ports/cortex_m4/gnu/inc/tx_port.h **** #define TX_QUEUE_EXTENSION
 248:Middlewares/ST/threadx/ports/cortex_m4/gnu/inc/tx_port.h **** #define TX_SEMAPHORE_EXTENSION
 249:Middlewares/ST/threadx/ports/cortex_m4/gnu/inc/tx_port.h **** #define TX_TIMER_EXTENSION
 250:Middlewares/ST/threadx/ports/cortex_m4/gnu/inc/tx_port.h **** 
 251:Middlewares/ST/threadx/ports/cortex_m4/gnu/inc/tx_port.h **** 
 252:Middlewares/ST/threadx/ports/cortex_m4/gnu/inc/tx_port.h **** /* Define the user extension field of the thread control block.  Nothing
 253:Middlewares/ST/threadx/ports/cortex_m4/gnu/inc/tx_port.h ****    additional is needed for this port so it is defined as white space.  */
 254:Middlewares/ST/threadx/ports/cortex_m4/gnu/inc/tx_port.h **** 
 255:Middlewares/ST/threadx/ports/cortex_m4/gnu/inc/tx_port.h **** #ifndef TX_THREAD_USER_EXTENSION
 256:Middlewares/ST/threadx/ports/cortex_m4/gnu/inc/tx_port.h **** #define TX_THREAD_USER_EXTENSION
 257:Middlewares/ST/threadx/ports/cortex_m4/gnu/inc/tx_port.h **** #endif
 258:Middlewares/ST/threadx/ports/cortex_m4/gnu/inc/tx_port.h **** 
 259:Middlewares/ST/threadx/ports/cortex_m4/gnu/inc/tx_port.h **** 
 260:Middlewares/ST/threadx/ports/cortex_m4/gnu/inc/tx_port.h **** /* Define the macros for processing extensions in tx_thread_create, tx_thread_delete,
 261:Middlewares/ST/threadx/ports/cortex_m4/gnu/inc/tx_port.h ****    tx_thread_shell_entry, and tx_thread_terminate.  */
 262:Middlewares/ST/threadx/ports/cortex_m4/gnu/inc/tx_port.h **** 
 263:Middlewares/ST/threadx/ports/cortex_m4/gnu/inc/tx_port.h **** 
 264:Middlewares/ST/threadx/ports/cortex_m4/gnu/inc/tx_port.h **** #ifdef  TX_ENABLE_IAR_LIBRARY_SUPPORT
 265:Middlewares/ST/threadx/ports/cortex_m4/gnu/inc/tx_port.h **** #if (__VER__ < 8000000)
 266:Middlewares/ST/threadx/ports/cortex_m4/gnu/inc/tx_port.h **** #define TX_THREAD_CREATE_EXTENSION(thread_ptr)                      thread_ptr -> tx_thread_iar_tls
 267:Middlewares/ST/threadx/ports/cortex_m4/gnu/inc/tx_port.h **** #define TX_THREAD_DELETE_EXTENSION(thread_ptr)                      __iar_dlib_perthread_deallocate
 268:Middlewares/ST/threadx/ports/cortex_m4/gnu/inc/tx_port.h ****                                                                     thread_ptr -> tx_thread_iar_tls
 269:Middlewares/ST/threadx/ports/cortex_m4/gnu/inc/tx_port.h **** #define TX_PORT_SPECIFIC_PRE_SCHEDULER_INITIALIZATION               __iar_dlib_perthread_access(0);
 270:Middlewares/ST/threadx/ports/cortex_m4/gnu/inc/tx_port.h **** #else
 271:Middlewares/ST/threadx/ports/cortex_m4/gnu/inc/tx_port.h **** void    *_tx_iar_create_per_thread_tls_area(void);
 272:Middlewares/ST/threadx/ports/cortex_m4/gnu/inc/tx_port.h **** void    _tx_iar_destroy_per_thread_tls_area(void *tls_ptr);
 273:Middlewares/ST/threadx/ports/cortex_m4/gnu/inc/tx_port.h **** void    __iar_Initlocks(void);
 274:Middlewares/ST/threadx/ports/cortex_m4/gnu/inc/tx_port.h **** 
ARM GAS  /var/folders/pn/6vkv57yd1x9dxx59v7t3_slc0000gn/T//cc3QrNNe.s 			page 9


 275:Middlewares/ST/threadx/ports/cortex_m4/gnu/inc/tx_port.h **** #define TX_THREAD_CREATE_EXTENSION(thread_ptr)                      thread_ptr -> tx_thread_iar_tls
 276:Middlewares/ST/threadx/ports/cortex_m4/gnu/inc/tx_port.h **** #define TX_THREAD_DELETE_EXTENSION(thread_ptr)                      do {_tx_iar_destroy_per_thread_
 277:Middlewares/ST/threadx/ports/cortex_m4/gnu/inc/tx_port.h ****                                                                         thread_ptr -> tx_thread_iar
 278:Middlewares/ST/threadx/ports/cortex_m4/gnu/inc/tx_port.h **** #define TX_PORT_SPECIFIC_PRE_SCHEDULER_INITIALIZATION               do {__iar_Initlocks();} while(0
 279:Middlewares/ST/threadx/ports/cortex_m4/gnu/inc/tx_port.h **** #endif
 280:Middlewares/ST/threadx/ports/cortex_m4/gnu/inc/tx_port.h **** #else
 281:Middlewares/ST/threadx/ports/cortex_m4/gnu/inc/tx_port.h **** #define TX_THREAD_CREATE_EXTENSION(thread_ptr)
 282:Middlewares/ST/threadx/ports/cortex_m4/gnu/inc/tx_port.h **** #define TX_THREAD_DELETE_EXTENSION(thread_ptr)
 283:Middlewares/ST/threadx/ports/cortex_m4/gnu/inc/tx_port.h **** #endif
 284:Middlewares/ST/threadx/ports/cortex_m4/gnu/inc/tx_port.h **** 
 285:Middlewares/ST/threadx/ports/cortex_m4/gnu/inc/tx_port.h **** #if defined(__ARMVFP__) || defined(__ARM_PCS_VFP) || defined(__ARM_FP) || defined(__TARGET_FPU_VFP)
 286:Middlewares/ST/threadx/ports/cortex_m4/gnu/inc/tx_port.h **** 
 287:Middlewares/ST/threadx/ports/cortex_m4/gnu/inc/tx_port.h **** #ifdef TX_MISRA_ENABLE
 288:Middlewares/ST/threadx/ports/cortex_m4/gnu/inc/tx_port.h **** 
 289:Middlewares/ST/threadx/ports/cortex_m4/gnu/inc/tx_port.h **** ULONG  _tx_misra_control_get(void);
 290:Middlewares/ST/threadx/ports/cortex_m4/gnu/inc/tx_port.h **** void   _tx_misra_control_set(ULONG value);
 291:Middlewares/ST/threadx/ports/cortex_m4/gnu/inc/tx_port.h **** ULONG  _tx_misra_fpccr_get(void);
 292:Middlewares/ST/threadx/ports/cortex_m4/gnu/inc/tx_port.h **** void   _tx_misra_vfp_touch(void);
 293:Middlewares/ST/threadx/ports/cortex_m4/gnu/inc/tx_port.h **** 
 294:Middlewares/ST/threadx/ports/cortex_m4/gnu/inc/tx_port.h **** #else   /* TX_MISRA_ENABLE not defined */
 295:Middlewares/ST/threadx/ports/cortex_m4/gnu/inc/tx_port.h **** 
 296:Middlewares/ST/threadx/ports/cortex_m4/gnu/inc/tx_port.h **** /* Define some helper functions (these are intrinsics in some compilers). */
 297:Middlewares/ST/threadx/ports/cortex_m4/gnu/inc/tx_port.h **** #ifdef __GNUC__ /* GCC and ARM Compiler 6 */
 298:Middlewares/ST/threadx/ports/cortex_m4/gnu/inc/tx_port.h **** 
 299:Middlewares/ST/threadx/ports/cortex_m4/gnu/inc/tx_port.h **** __attribute__( ( always_inline ) ) static inline ULONG __get_control_value(void)
 300:Middlewares/ST/threadx/ports/cortex_m4/gnu/inc/tx_port.h **** {
 301:Middlewares/ST/threadx/ports/cortex_m4/gnu/inc/tx_port.h **** ULONG  control_value;
 302:Middlewares/ST/threadx/ports/cortex_m4/gnu/inc/tx_port.h **** 
 303:Middlewares/ST/threadx/ports/cortex_m4/gnu/inc/tx_port.h ****     __asm__ volatile (" MRS  %0,CONTROL ": "=r" (control_value) );
 304:Middlewares/ST/threadx/ports/cortex_m4/gnu/inc/tx_port.h ****     return(control_value);
 305:Middlewares/ST/threadx/ports/cortex_m4/gnu/inc/tx_port.h **** }
 306:Middlewares/ST/threadx/ports/cortex_m4/gnu/inc/tx_port.h **** 
 307:Middlewares/ST/threadx/ports/cortex_m4/gnu/inc/tx_port.h **** __attribute__( ( always_inline ) ) static inline void __set_control_value(ULONG control_value)
 308:Middlewares/ST/threadx/ports/cortex_m4/gnu/inc/tx_port.h **** {
 309:Middlewares/ST/threadx/ports/cortex_m4/gnu/inc/tx_port.h ****     __asm__ volatile (" MSR  CONTROL,%0": : "r" (control_value): "memory" );
 310:Middlewares/ST/threadx/ports/cortex_m4/gnu/inc/tx_port.h **** }
 311:Middlewares/ST/threadx/ports/cortex_m4/gnu/inc/tx_port.h **** 
 312:Middlewares/ST/threadx/ports/cortex_m4/gnu/inc/tx_port.h **** #define TX_VFP_TOUCH()  __asm__ volatile ("VMOV.F32 s0, s0");
 313:Middlewares/ST/threadx/ports/cortex_m4/gnu/inc/tx_port.h **** 
 314:Middlewares/ST/threadx/ports/cortex_m4/gnu/inc/tx_port.h **** #elif defined(__CC_ARM) /* ARM Compiler 5 */
 315:Middlewares/ST/threadx/ports/cortex_m4/gnu/inc/tx_port.h **** 
 316:Middlewares/ST/threadx/ports/cortex_m4/gnu/inc/tx_port.h **** __attribute__( ( always_inline ) ) ULONG __get_control_value(void)
 317:Middlewares/ST/threadx/ports/cortex_m4/gnu/inc/tx_port.h **** {
 318:Middlewares/ST/threadx/ports/cortex_m4/gnu/inc/tx_port.h **** ULONG  control_value;
 319:Middlewares/ST/threadx/ports/cortex_m4/gnu/inc/tx_port.h **** 
 320:Middlewares/ST/threadx/ports/cortex_m4/gnu/inc/tx_port.h ****     __asm volatile ("MRS control_value,CONTROL");
 321:Middlewares/ST/threadx/ports/cortex_m4/gnu/inc/tx_port.h ****     return(control_value);
 322:Middlewares/ST/threadx/ports/cortex_m4/gnu/inc/tx_port.h **** }
 323:Middlewares/ST/threadx/ports/cortex_m4/gnu/inc/tx_port.h **** 
 324:Middlewares/ST/threadx/ports/cortex_m4/gnu/inc/tx_port.h **** __attribute__( ( always_inline ) ) void __set_control_value(ULONG control_value)
 325:Middlewares/ST/threadx/ports/cortex_m4/gnu/inc/tx_port.h **** {
 326:Middlewares/ST/threadx/ports/cortex_m4/gnu/inc/tx_port.h ****     __asm__ volatile ("MSR CONTROL,control_value");
 327:Middlewares/ST/threadx/ports/cortex_m4/gnu/inc/tx_port.h **** }
 328:Middlewares/ST/threadx/ports/cortex_m4/gnu/inc/tx_port.h **** /* Can't access VFP registers with inline asm, so define this in tx_thread_schedule.  */
 329:Middlewares/ST/threadx/ports/cortex_m4/gnu/inc/tx_port.h **** void _tx_vfp_access(void);
 330:Middlewares/ST/threadx/ports/cortex_m4/gnu/inc/tx_port.h **** #define TX_VFP_TOUCH()  _tx_vfp_access();
 331:Middlewares/ST/threadx/ports/cortex_m4/gnu/inc/tx_port.h **** 
ARM GAS  /var/folders/pn/6vkv57yd1x9dxx59v7t3_slc0000gn/T//cc3QrNNe.s 			page 10


 332:Middlewares/ST/threadx/ports/cortex_m4/gnu/inc/tx_port.h **** #elif defined(__ICCARM__)  /* IAR */
 333:Middlewares/ST/threadx/ports/cortex_m4/gnu/inc/tx_port.h **** #define TX_VFP_TOUCH()  __asm__ volatile ("VMOV.F32 s0, s0");
 334:Middlewares/ST/threadx/ports/cortex_m4/gnu/inc/tx_port.h **** #endif  /* Helper functions for different compilers */
 335:Middlewares/ST/threadx/ports/cortex_m4/gnu/inc/tx_port.h **** 
 336:Middlewares/ST/threadx/ports/cortex_m4/gnu/inc/tx_port.h **** #endif  /* TX_MISRA_ENABLE */
 337:Middlewares/ST/threadx/ports/cortex_m4/gnu/inc/tx_port.h **** 
 338:Middlewares/ST/threadx/ports/cortex_m4/gnu/inc/tx_port.h **** 
 339:Middlewares/ST/threadx/ports/cortex_m4/gnu/inc/tx_port.h **** /* A completed thread falls into _thread_shell_entry and we can simply deactivate the FPU via CONTR
 340:Middlewares/ST/threadx/ports/cortex_m4/gnu/inc/tx_port.h ****    in order to ensure no lazy stacking will occur. */
 341:Middlewares/ST/threadx/ports/cortex_m4/gnu/inc/tx_port.h **** 
 342:Middlewares/ST/threadx/ports/cortex_m4/gnu/inc/tx_port.h **** #ifndef TX_MISRA_ENABLE
 343:Middlewares/ST/threadx/ports/cortex_m4/gnu/inc/tx_port.h **** 
 344:Middlewares/ST/threadx/ports/cortex_m4/gnu/inc/tx_port.h **** #define TX_THREAD_COMPLETED_EXTENSION(thread_ptr)   {                                              
 345:Middlewares/ST/threadx/ports/cortex_m4/gnu/inc/tx_port.h ****                                                     ULONG  _tx_vfp_state;                          
 346:Middlewares/ST/threadx/ports/cortex_m4/gnu/inc/tx_port.h ****                                                         _tx_vfp_state =  __get_control_value();    
 347:Middlewares/ST/threadx/ports/cortex_m4/gnu/inc/tx_port.h ****                                                         _tx_vfp_state =  _tx_vfp_state & ~((ULONG) 
 348:Middlewares/ST/threadx/ports/cortex_m4/gnu/inc/tx_port.h ****                                                         __set_control_value(_tx_vfp_state);        
 349:Middlewares/ST/threadx/ports/cortex_m4/gnu/inc/tx_port.h ****                                                     }
 350:Middlewares/ST/threadx/ports/cortex_m4/gnu/inc/tx_port.h **** #else
 351:Middlewares/ST/threadx/ports/cortex_m4/gnu/inc/tx_port.h **** 
 352:Middlewares/ST/threadx/ports/cortex_m4/gnu/inc/tx_port.h **** #define TX_THREAD_COMPLETED_EXTENSION(thread_ptr)   {                                              
 353:Middlewares/ST/threadx/ports/cortex_m4/gnu/inc/tx_port.h ****                                                     ULONG  _tx_vfp_state;                          
 354:Middlewares/ST/threadx/ports/cortex_m4/gnu/inc/tx_port.h ****                                                         _tx_vfp_state =  _tx_misra_control_get();  
 355:Middlewares/ST/threadx/ports/cortex_m4/gnu/inc/tx_port.h ****                                                         _tx_vfp_state =  _tx_vfp_state & ~((ULONG) 
 356:Middlewares/ST/threadx/ports/cortex_m4/gnu/inc/tx_port.h ****                                                         _tx_misra_control_set(_tx_vfp_state);      
 357:Middlewares/ST/threadx/ports/cortex_m4/gnu/inc/tx_port.h ****                                                     }
 358:Middlewares/ST/threadx/ports/cortex_m4/gnu/inc/tx_port.h **** 
 359:Middlewares/ST/threadx/ports/cortex_m4/gnu/inc/tx_port.h **** #endif
 360:Middlewares/ST/threadx/ports/cortex_m4/gnu/inc/tx_port.h **** 
 361:Middlewares/ST/threadx/ports/cortex_m4/gnu/inc/tx_port.h **** /* A thread can be terminated by another thread, so we first check if it's self-terminating and not
 362:Middlewares/ST/threadx/ports/cortex_m4/gnu/inc/tx_port.h ****    If so, deactivate the FPU via CONTROL.FPCA. Otherwise we are in an interrupt or another thread i
 363:Middlewares/ST/threadx/ports/cortex_m4/gnu/inc/tx_port.h ****    this one, so if the FPCCR.LSPACT bit is set, we need to save the CONTROL.FPCA state, touch the F
 364:Middlewares/ST/threadx/ports/cortex_m4/gnu/inc/tx_port.h ****    the lazy FPU save, then restore the CONTROL.FPCA state. */
 365:Middlewares/ST/threadx/ports/cortex_m4/gnu/inc/tx_port.h **** 
 366:Middlewares/ST/threadx/ports/cortex_m4/gnu/inc/tx_port.h **** #ifndef TX_MISRA_ENABLE
 367:Middlewares/ST/threadx/ports/cortex_m4/gnu/inc/tx_port.h **** 
 368:Middlewares/ST/threadx/ports/cortex_m4/gnu/inc/tx_port.h **** #define TX_THREAD_TERMINATED_EXTENSION(thread_ptr)  {                                              
 369:Middlewares/ST/threadx/ports/cortex_m4/gnu/inc/tx_port.h ****                                                     ULONG  _tx_system_state;                       
 370:Middlewares/ST/threadx/ports/cortex_m4/gnu/inc/tx_port.h ****                                                         _tx_system_state =  TX_THREAD_GET_SYSTEM_ST
 371:Middlewares/ST/threadx/ports/cortex_m4/gnu/inc/tx_port.h ****                                                         if ((_tx_system_state == ((ULONG) 0)) && ((
 372:Middlewares/ST/threadx/ports/cortex_m4/gnu/inc/tx_port.h ****                                                         {                                          
 373:Middlewares/ST/threadx/ports/cortex_m4/gnu/inc/tx_port.h ****                                                         ULONG  _tx_vfp_state;                      
 374:Middlewares/ST/threadx/ports/cortex_m4/gnu/inc/tx_port.h ****                                                             _tx_vfp_state =  __get_control_value();
 375:Middlewares/ST/threadx/ports/cortex_m4/gnu/inc/tx_port.h ****                                                             _tx_vfp_state =  _tx_vfp_state & ~((ULO
 376:Middlewares/ST/threadx/ports/cortex_m4/gnu/inc/tx_port.h ****                                                             __set_control_value(_tx_vfp_state);    
 377:Middlewares/ST/threadx/ports/cortex_m4/gnu/inc/tx_port.h ****                                                         }                                          
 378:Middlewares/ST/threadx/ports/cortex_m4/gnu/inc/tx_port.h ****                                                         else                                       
 379:Middlewares/ST/threadx/ports/cortex_m4/gnu/inc/tx_port.h ****                                                         {                                          
 380:Middlewares/ST/threadx/ports/cortex_m4/gnu/inc/tx_port.h ****                                                         ULONG  _tx_fpccr;                          
 381:Middlewares/ST/threadx/ports/cortex_m4/gnu/inc/tx_port.h ****                                                             _tx_fpccr =  *((ULONG *) 0xE000EF34);  
 382:Middlewares/ST/threadx/ports/cortex_m4/gnu/inc/tx_port.h ****                                                             _tx_fpccr =  _tx_fpccr & ((ULONG) 0x01)
 383:Middlewares/ST/threadx/ports/cortex_m4/gnu/inc/tx_port.h ****                                                             if (_tx_fpccr == ((ULONG) 0x01))       
 384:Middlewares/ST/threadx/ports/cortex_m4/gnu/inc/tx_port.h ****                                                             {                                      
 385:Middlewares/ST/threadx/ports/cortex_m4/gnu/inc/tx_port.h ****                                                             ULONG _tx_vfp_state;                   
 386:Middlewares/ST/threadx/ports/cortex_m4/gnu/inc/tx_port.h ****                                                                 _tx_vfp_state = __get_control_value
 387:Middlewares/ST/threadx/ports/cortex_m4/gnu/inc/tx_port.h ****                                                                 _tx_vfp_state =  _tx_vfp_state & ((
 388:Middlewares/ST/threadx/ports/cortex_m4/gnu/inc/tx_port.h ****                                                                 TX_VFP_TOUCH();                    
ARM GAS  /var/folders/pn/6vkv57yd1x9dxx59v7t3_slc0000gn/T//cc3QrNNe.s 			page 11


 389:Middlewares/ST/threadx/ports/cortex_m4/gnu/inc/tx_port.h ****                                                                 if (_tx_vfp_state == ((ULONG) 0))  
 390:Middlewares/ST/threadx/ports/cortex_m4/gnu/inc/tx_port.h ****                                                                 {                                  
 391:Middlewares/ST/threadx/ports/cortex_m4/gnu/inc/tx_port.h ****                                                                     _tx_vfp_state =  __get_control_
 392:Middlewares/ST/threadx/ports/cortex_m4/gnu/inc/tx_port.h ****                                                                     _tx_vfp_state =  _tx_vfp_state 
 393:Middlewares/ST/threadx/ports/cortex_m4/gnu/inc/tx_port.h ****                                                                     __set_control_value(_tx_vfp_sta
 394:Middlewares/ST/threadx/ports/cortex_m4/gnu/inc/tx_port.h ****                                                                 }                                  
 395:Middlewares/ST/threadx/ports/cortex_m4/gnu/inc/tx_port.h ****                                                             }                                      
 396:Middlewares/ST/threadx/ports/cortex_m4/gnu/inc/tx_port.h ****                                                         }                                          
 397:Middlewares/ST/threadx/ports/cortex_m4/gnu/inc/tx_port.h ****                                                     }
 398:Middlewares/ST/threadx/ports/cortex_m4/gnu/inc/tx_port.h **** #else
 399:Middlewares/ST/threadx/ports/cortex_m4/gnu/inc/tx_port.h **** 
 400:Middlewares/ST/threadx/ports/cortex_m4/gnu/inc/tx_port.h **** #define TX_THREAD_TERMINATED_EXTENSION(thread_ptr)  {                                              
 401:Middlewares/ST/threadx/ports/cortex_m4/gnu/inc/tx_port.h ****                                                     ULONG  _tx_system_state;                       
 402:Middlewares/ST/threadx/ports/cortex_m4/gnu/inc/tx_port.h ****                                                         _tx_system_state =  TX_THREAD_GET_SYSTEM_ST
 403:Middlewares/ST/threadx/ports/cortex_m4/gnu/inc/tx_port.h ****                                                         if ((_tx_system_state == ((ULONG) 0)) && ((
 404:Middlewares/ST/threadx/ports/cortex_m4/gnu/inc/tx_port.h ****                                                         {                                          
 405:Middlewares/ST/threadx/ports/cortex_m4/gnu/inc/tx_port.h ****                                                         ULONG  _tx_vfp_state;                      
 406:Middlewares/ST/threadx/ports/cortex_m4/gnu/inc/tx_port.h ****                                                             _tx_vfp_state =  _tx_misra_control_get(
 407:Middlewares/ST/threadx/ports/cortex_m4/gnu/inc/tx_port.h ****                                                             _tx_vfp_state =  _tx_vfp_state & ~((ULO
 408:Middlewares/ST/threadx/ports/cortex_m4/gnu/inc/tx_port.h ****                                                             _tx_misra_control_set(_tx_vfp_state);  
 409:Middlewares/ST/threadx/ports/cortex_m4/gnu/inc/tx_port.h ****                                                         }                                          
 410:Middlewares/ST/threadx/ports/cortex_m4/gnu/inc/tx_port.h ****                                                         else                                       
 411:Middlewares/ST/threadx/ports/cortex_m4/gnu/inc/tx_port.h ****                                                         {                                          
 412:Middlewares/ST/threadx/ports/cortex_m4/gnu/inc/tx_port.h ****                                                         ULONG  _tx_fpccr;                          
 413:Middlewares/ST/threadx/ports/cortex_m4/gnu/inc/tx_port.h ****                                                             _tx_fpccr =  _tx_misra_fpccr_get();    
 414:Middlewares/ST/threadx/ports/cortex_m4/gnu/inc/tx_port.h ****                                                             _tx_fpccr =  _tx_fpccr & ((ULONG) 0x01)
 415:Middlewares/ST/threadx/ports/cortex_m4/gnu/inc/tx_port.h ****                                                             if (_tx_fpccr == ((ULONG) 0x01))       
 416:Middlewares/ST/threadx/ports/cortex_m4/gnu/inc/tx_port.h ****                                                             {                                      
 417:Middlewares/ST/threadx/ports/cortex_m4/gnu/inc/tx_port.h ****                                                             ULONG _tx_vfp_state;                   
 418:Middlewares/ST/threadx/ports/cortex_m4/gnu/inc/tx_port.h ****                                                                 _tx_vfp_state = _tx_misra_control_g
 419:Middlewares/ST/threadx/ports/cortex_m4/gnu/inc/tx_port.h ****                                                                 _tx_vfp_state =  _tx_vfp_state & ((
 420:Middlewares/ST/threadx/ports/cortex_m4/gnu/inc/tx_port.h ****                                                                 _tx_misra_vfp_touch();             
 421:Middlewares/ST/threadx/ports/cortex_m4/gnu/inc/tx_port.h ****                                                                 if (_tx_vfp_state == ((ULONG) 0))  
 422:Middlewares/ST/threadx/ports/cortex_m4/gnu/inc/tx_port.h ****                                                                 {                                  
 423:Middlewares/ST/threadx/ports/cortex_m4/gnu/inc/tx_port.h ****                                                                     _tx_vfp_state =  _tx_misra_cont
 424:Middlewares/ST/threadx/ports/cortex_m4/gnu/inc/tx_port.h ****                                                                     _tx_vfp_state =  _tx_vfp_state 
 425:Middlewares/ST/threadx/ports/cortex_m4/gnu/inc/tx_port.h ****                                                                     _tx_misra_control_set(_tx_vfp_s
 426:Middlewares/ST/threadx/ports/cortex_m4/gnu/inc/tx_port.h ****                                                                 }                                  
 427:Middlewares/ST/threadx/ports/cortex_m4/gnu/inc/tx_port.h ****                                                             }                                      
 428:Middlewares/ST/threadx/ports/cortex_m4/gnu/inc/tx_port.h ****                                                         }                                          
 429:Middlewares/ST/threadx/ports/cortex_m4/gnu/inc/tx_port.h ****                                                     }
 430:Middlewares/ST/threadx/ports/cortex_m4/gnu/inc/tx_port.h **** #endif
 431:Middlewares/ST/threadx/ports/cortex_m4/gnu/inc/tx_port.h **** 
 432:Middlewares/ST/threadx/ports/cortex_m4/gnu/inc/tx_port.h **** #else   /* No VFP in use */
 433:Middlewares/ST/threadx/ports/cortex_m4/gnu/inc/tx_port.h **** 
 434:Middlewares/ST/threadx/ports/cortex_m4/gnu/inc/tx_port.h **** #define TX_THREAD_COMPLETED_EXTENSION(thread_ptr)
 435:Middlewares/ST/threadx/ports/cortex_m4/gnu/inc/tx_port.h **** #define TX_THREAD_TERMINATED_EXTENSION(thread_ptr)
 436:Middlewares/ST/threadx/ports/cortex_m4/gnu/inc/tx_port.h **** 
 437:Middlewares/ST/threadx/ports/cortex_m4/gnu/inc/tx_port.h **** #endif  /* defined(__ARMVFP__) || defined(__ARM_PCS_VFP) || defined(__ARM_FP) || defined(__TARGET_F
 438:Middlewares/ST/threadx/ports/cortex_m4/gnu/inc/tx_port.h **** 
 439:Middlewares/ST/threadx/ports/cortex_m4/gnu/inc/tx_port.h **** 
 440:Middlewares/ST/threadx/ports/cortex_m4/gnu/inc/tx_port.h **** /* Define the ThreadX object creation extensions for the remaining objects.  */
 441:Middlewares/ST/threadx/ports/cortex_m4/gnu/inc/tx_port.h **** 
 442:Middlewares/ST/threadx/ports/cortex_m4/gnu/inc/tx_port.h **** #define TX_BLOCK_POOL_CREATE_EXTENSION(pool_ptr)
 443:Middlewares/ST/threadx/ports/cortex_m4/gnu/inc/tx_port.h **** #define TX_BYTE_POOL_CREATE_EXTENSION(pool_ptr)
 444:Middlewares/ST/threadx/ports/cortex_m4/gnu/inc/tx_port.h **** #define TX_EVENT_FLAGS_GROUP_CREATE_EXTENSION(group_ptr)
 445:Middlewares/ST/threadx/ports/cortex_m4/gnu/inc/tx_port.h **** #define TX_MUTEX_CREATE_EXTENSION(mutex_ptr)
ARM GAS  /var/folders/pn/6vkv57yd1x9dxx59v7t3_slc0000gn/T//cc3QrNNe.s 			page 12


 446:Middlewares/ST/threadx/ports/cortex_m4/gnu/inc/tx_port.h **** #define TX_QUEUE_CREATE_EXTENSION(queue_ptr)
 447:Middlewares/ST/threadx/ports/cortex_m4/gnu/inc/tx_port.h **** #define TX_SEMAPHORE_CREATE_EXTENSION(semaphore_ptr)
 448:Middlewares/ST/threadx/ports/cortex_m4/gnu/inc/tx_port.h **** #define TX_TIMER_CREATE_EXTENSION(timer_ptr)
 449:Middlewares/ST/threadx/ports/cortex_m4/gnu/inc/tx_port.h **** 
 450:Middlewares/ST/threadx/ports/cortex_m4/gnu/inc/tx_port.h **** 
 451:Middlewares/ST/threadx/ports/cortex_m4/gnu/inc/tx_port.h **** /* Define the ThreadX object deletion extensions for the remaining objects.  */
 452:Middlewares/ST/threadx/ports/cortex_m4/gnu/inc/tx_port.h **** 
 453:Middlewares/ST/threadx/ports/cortex_m4/gnu/inc/tx_port.h **** #define TX_BLOCK_POOL_DELETE_EXTENSION(pool_ptr)
 454:Middlewares/ST/threadx/ports/cortex_m4/gnu/inc/tx_port.h **** #define TX_BYTE_POOL_DELETE_EXTENSION(pool_ptr)
 455:Middlewares/ST/threadx/ports/cortex_m4/gnu/inc/tx_port.h **** #define TX_EVENT_FLAGS_GROUP_DELETE_EXTENSION(group_ptr)
 456:Middlewares/ST/threadx/ports/cortex_m4/gnu/inc/tx_port.h **** #define TX_MUTEX_DELETE_EXTENSION(mutex_ptr)
 457:Middlewares/ST/threadx/ports/cortex_m4/gnu/inc/tx_port.h **** #define TX_QUEUE_DELETE_EXTENSION(queue_ptr)
 458:Middlewares/ST/threadx/ports/cortex_m4/gnu/inc/tx_port.h **** #define TX_SEMAPHORE_DELETE_EXTENSION(semaphore_ptr)
 459:Middlewares/ST/threadx/ports/cortex_m4/gnu/inc/tx_port.h **** #define TX_TIMER_DELETE_EXTENSION(timer_ptr)
 460:Middlewares/ST/threadx/ports/cortex_m4/gnu/inc/tx_port.h **** 
 461:Middlewares/ST/threadx/ports/cortex_m4/gnu/inc/tx_port.h **** 
 462:Middlewares/ST/threadx/ports/cortex_m4/gnu/inc/tx_port.h **** /* Define the get system state macro.  */
 463:Middlewares/ST/threadx/ports/cortex_m4/gnu/inc/tx_port.h **** 
 464:Middlewares/ST/threadx/ports/cortex_m4/gnu/inc/tx_port.h **** #ifndef TX_THREAD_GET_SYSTEM_STATE
 465:Middlewares/ST/threadx/ports/cortex_m4/gnu/inc/tx_port.h **** #ifndef TX_MISRA_ENABLE
 466:Middlewares/ST/threadx/ports/cortex_m4/gnu/inc/tx_port.h **** 
 467:Middlewares/ST/threadx/ports/cortex_m4/gnu/inc/tx_port.h **** #ifdef __CC_ARM /* ARM Compiler 5 */
 468:Middlewares/ST/threadx/ports/cortex_m4/gnu/inc/tx_port.h **** 
 469:Middlewares/ST/threadx/ports/cortex_m4/gnu/inc/tx_port.h **** register unsigned int _ipsr __asm("ipsr");
 470:Middlewares/ST/threadx/ports/cortex_m4/gnu/inc/tx_port.h **** #define TX_THREAD_GET_SYSTEM_STATE()        (_tx_thread_system_state | _ipsr)
 471:Middlewares/ST/threadx/ports/cortex_m4/gnu/inc/tx_port.h **** 
 472:Middlewares/ST/threadx/ports/cortex_m4/gnu/inc/tx_port.h **** #elif defined(__GNUC__) /* GCC and ARM Compiler 6 */
 473:Middlewares/ST/threadx/ports/cortex_m4/gnu/inc/tx_port.h **** 
 474:Middlewares/ST/threadx/ports/cortex_m4/gnu/inc/tx_port.h **** __attribute__( ( always_inline ) ) static inline unsigned int __get_ipsr_value(void)
 475:Middlewares/ST/threadx/ports/cortex_m4/gnu/inc/tx_port.h **** {
 476:Middlewares/ST/threadx/ports/cortex_m4/gnu/inc/tx_port.h **** unsigned int  ipsr_value;
 477:Middlewares/ST/threadx/ports/cortex_m4/gnu/inc/tx_port.h ****     __asm__ volatile (" MRS  %0,IPSR ": "=r" (ipsr_value) );
 478:Middlewares/ST/threadx/ports/cortex_m4/gnu/inc/tx_port.h ****     return(ipsr_value);
 479:Middlewares/ST/threadx/ports/cortex_m4/gnu/inc/tx_port.h **** }
 480:Middlewares/ST/threadx/ports/cortex_m4/gnu/inc/tx_port.h **** 
 481:Middlewares/ST/threadx/ports/cortex_m4/gnu/inc/tx_port.h **** #define TX_THREAD_GET_SYSTEM_STATE()        (_tx_thread_system_state | __get_ipsr_value())
 482:Middlewares/ST/threadx/ports/cortex_m4/gnu/inc/tx_port.h **** 
 483:Middlewares/ST/threadx/ports/cortex_m4/gnu/inc/tx_port.h **** #elif defined(__ICCARM__)   /* IAR */
 484:Middlewares/ST/threadx/ports/cortex_m4/gnu/inc/tx_port.h **** 
 485:Middlewares/ST/threadx/ports/cortex_m4/gnu/inc/tx_port.h **** #define TX_THREAD_GET_SYSTEM_STATE()        (_tx_thread_system_state | __get_IPSR())
 486:Middlewares/ST/threadx/ports/cortex_m4/gnu/inc/tx_port.h **** 
 487:Middlewares/ST/threadx/ports/cortex_m4/gnu/inc/tx_port.h **** #endif  /* TX_THREAD_GET_SYSTEM_STATE for different compilers */
 488:Middlewares/ST/threadx/ports/cortex_m4/gnu/inc/tx_port.h **** 
 489:Middlewares/ST/threadx/ports/cortex_m4/gnu/inc/tx_port.h **** #else   /* TX_MISRA_ENABLE is defined, use MISRA function. */
 490:Middlewares/ST/threadx/ports/cortex_m4/gnu/inc/tx_port.h **** ULONG   _tx_misra_ipsr_get(VOID);
 491:Middlewares/ST/threadx/ports/cortex_m4/gnu/inc/tx_port.h **** #define TX_THREAD_GET_SYSTEM_STATE()        (_tx_thread_system_state | _tx_misra_ipsr_get())
 492:Middlewares/ST/threadx/ports/cortex_m4/gnu/inc/tx_port.h **** #endif  /* TX_MISRA_ENABLE */
 493:Middlewares/ST/threadx/ports/cortex_m4/gnu/inc/tx_port.h **** #endif  /* TX_THREAD_GET_SYSTEM_STATE */
 494:Middlewares/ST/threadx/ports/cortex_m4/gnu/inc/tx_port.h **** 
 495:Middlewares/ST/threadx/ports/cortex_m4/gnu/inc/tx_port.h **** 
 496:Middlewares/ST/threadx/ports/cortex_m4/gnu/inc/tx_port.h **** /* Define the check for whether or not to call the _tx_thread_system_return function.  A non-zero v
 497:Middlewares/ST/threadx/ports/cortex_m4/gnu/inc/tx_port.h ****    indicates that _tx_thread_system_return should not be called. This overrides the definition in t
 498:Middlewares/ST/threadx/ports/cortex_m4/gnu/inc/tx_port.h ****    for Cortex-M since so we don't waste time checking the _tx_thread_system_state variable that is 
 499:Middlewares/ST/threadx/ports/cortex_m4/gnu/inc/tx_port.h ****    zero after initialization for Cortex-M ports. */
 500:Middlewares/ST/threadx/ports/cortex_m4/gnu/inc/tx_port.h **** 
 501:Middlewares/ST/threadx/ports/cortex_m4/gnu/inc/tx_port.h **** #ifndef TX_THREAD_SYSTEM_RETURN_CHECK
 502:Middlewares/ST/threadx/ports/cortex_m4/gnu/inc/tx_port.h **** #define TX_THREAD_SYSTEM_RETURN_CHECK(c)    (c) = ((ULONG) _tx_thread_preempt_disable);
ARM GAS  /var/folders/pn/6vkv57yd1x9dxx59v7t3_slc0000gn/T//cc3QrNNe.s 			page 13


 503:Middlewares/ST/threadx/ports/cortex_m4/gnu/inc/tx_port.h **** #endif
 504:Middlewares/ST/threadx/ports/cortex_m4/gnu/inc/tx_port.h **** 
 505:Middlewares/ST/threadx/ports/cortex_m4/gnu/inc/tx_port.h **** /* Define the macro to ensure _tx_thread_preempt_disable is set early in initialization in order to
 506:Middlewares/ST/threadx/ports/cortex_m4/gnu/inc/tx_port.h ****    prevent early scheduling on Cortex-M parts.  */
 507:Middlewares/ST/threadx/ports/cortex_m4/gnu/inc/tx_port.h **** 
 508:Middlewares/ST/threadx/ports/cortex_m4/gnu/inc/tx_port.h **** #define TX_PORT_SPECIFIC_POST_INITIALIZATION    _tx_thread_preempt_disable++;
 509:Middlewares/ST/threadx/ports/cortex_m4/gnu/inc/tx_port.h **** 
 510:Middlewares/ST/threadx/ports/cortex_m4/gnu/inc/tx_port.h **** 
 511:Middlewares/ST/threadx/ports/cortex_m4/gnu/inc/tx_port.h **** 
 512:Middlewares/ST/threadx/ports/cortex_m4/gnu/inc/tx_port.h **** 
 513:Middlewares/ST/threadx/ports/cortex_m4/gnu/inc/tx_port.h **** #ifndef TX_DISABLE_INLINE
 514:Middlewares/ST/threadx/ports/cortex_m4/gnu/inc/tx_port.h **** 
 515:Middlewares/ST/threadx/ports/cortex_m4/gnu/inc/tx_port.h **** /* Define the TX_LOWEST_SET_BIT_CALCULATE macro for each compiler. */
 516:Middlewares/ST/threadx/ports/cortex_m4/gnu/inc/tx_port.h **** #ifdef __ICCARM__       /* IAR Compiler */
 517:Middlewares/ST/threadx/ports/cortex_m4/gnu/inc/tx_port.h **** #define TX_LOWEST_SET_BIT_CALCULATE(m, b)       (b) = (UINT) __CLZ(__RBIT((m)));
 518:Middlewares/ST/threadx/ports/cortex_m4/gnu/inc/tx_port.h **** #elif defined(__CC_ARM) /* AC5 Compiler */
 519:Middlewares/ST/threadx/ports/cortex_m4/gnu/inc/tx_port.h **** #define TX_LOWEST_SET_BIT_CALCULATE(m, b)       (b) = (UINT) __clz(__rbit((m)));
 520:Middlewares/ST/threadx/ports/cortex_m4/gnu/inc/tx_port.h **** #elif defined(__GNUC__) /* GCC and AC6 Compiler */
 521:Middlewares/ST/threadx/ports/cortex_m4/gnu/inc/tx_port.h **** #define TX_LOWEST_SET_BIT_CALCULATE(m, b)       __asm__ volatile (" RBIT %0,%1 ": "=r" (m) : "r" (m
 522:Middlewares/ST/threadx/ports/cortex_m4/gnu/inc/tx_port.h ****                                                 __asm__ volatile (" CLZ  %0,%1 ": "=r" (b) : "r" (m
 523:Middlewares/ST/threadx/ports/cortex_m4/gnu/inc/tx_port.h **** #endif
 524:Middlewares/ST/threadx/ports/cortex_m4/gnu/inc/tx_port.h **** 
 525:Middlewares/ST/threadx/ports/cortex_m4/gnu/inc/tx_port.h **** 
 526:Middlewares/ST/threadx/ports/cortex_m4/gnu/inc/tx_port.h **** 
 527:Middlewares/ST/threadx/ports/cortex_m4/gnu/inc/tx_port.h **** /* Define the interrupt disable/restore macros for each compiler. */
 528:Middlewares/ST/threadx/ports/cortex_m4/gnu/inc/tx_port.h **** 
 529:Middlewares/ST/threadx/ports/cortex_m4/gnu/inc/tx_port.h **** #if defined(__GNUC__) || defined(__ICCARM__)
 530:Middlewares/ST/threadx/ports/cortex_m4/gnu/inc/tx_port.h **** 
 531:Middlewares/ST/threadx/ports/cortex_m4/gnu/inc/tx_port.h **** /*** GCC/AC6 and IAR ***/
 532:Middlewares/ST/threadx/ports/cortex_m4/gnu/inc/tx_port.h **** 
 533:Middlewares/ST/threadx/ports/cortex_m4/gnu/inc/tx_port.h **** __attribute__( ( always_inline ) ) static inline unsigned int __get_interrupt_posture(void)
 534:Middlewares/ST/threadx/ports/cortex_m4/gnu/inc/tx_port.h **** {
 535:Middlewares/ST/threadx/ports/cortex_m4/gnu/inc/tx_port.h **** unsigned int posture;
 536:Middlewares/ST/threadx/ports/cortex_m4/gnu/inc/tx_port.h **** #ifdef TX_PORT_USE_BASEPRI
 537:Middlewares/ST/threadx/ports/cortex_m4/gnu/inc/tx_port.h ****     __asm__ volatile ("MRS  %0, BASEPRI ": "=r" (posture));
 538:Middlewares/ST/threadx/ports/cortex_m4/gnu/inc/tx_port.h **** #else
 539:Middlewares/ST/threadx/ports/cortex_m4/gnu/inc/tx_port.h ****     __asm__ volatile ("MRS  %0, PRIMASK ": "=r" (posture));
 540:Middlewares/ST/threadx/ports/cortex_m4/gnu/inc/tx_port.h **** #endif
 541:Middlewares/ST/threadx/ports/cortex_m4/gnu/inc/tx_port.h ****     return(posture);
 542:Middlewares/ST/threadx/ports/cortex_m4/gnu/inc/tx_port.h **** }
 543:Middlewares/ST/threadx/ports/cortex_m4/gnu/inc/tx_port.h **** 
 544:Middlewares/ST/threadx/ports/cortex_m4/gnu/inc/tx_port.h **** #ifdef TX_PORT_USE_BASEPRI
 545:Middlewares/ST/threadx/ports/cortex_m4/gnu/inc/tx_port.h **** __attribute__( ( always_inline ) ) static inline void __set_basepri_value(unsigned int basepri_valu
 546:Middlewares/ST/threadx/ports/cortex_m4/gnu/inc/tx_port.h **** {
 547:Middlewares/ST/threadx/ports/cortex_m4/gnu/inc/tx_port.h ****     __asm__ volatile ("MSR  BASEPRI,%0 ": : "r" (basepri_value));
 548:Middlewares/ST/threadx/ports/cortex_m4/gnu/inc/tx_port.h **** }
 549:Middlewares/ST/threadx/ports/cortex_m4/gnu/inc/tx_port.h **** #else
 550:Middlewares/ST/threadx/ports/cortex_m4/gnu/inc/tx_port.h **** __attribute__( ( always_inline ) ) static inline void __enable_interrupts(void)
 551:Middlewares/ST/threadx/ports/cortex_m4/gnu/inc/tx_port.h **** {
 552:Middlewares/ST/threadx/ports/cortex_m4/gnu/inc/tx_port.h ****     __asm__ volatile ("CPSIE  i": : : "memory");
 553:Middlewares/ST/threadx/ports/cortex_m4/gnu/inc/tx_port.h **** }
 554:Middlewares/ST/threadx/ports/cortex_m4/gnu/inc/tx_port.h **** #endif
 555:Middlewares/ST/threadx/ports/cortex_m4/gnu/inc/tx_port.h **** 
 556:Middlewares/ST/threadx/ports/cortex_m4/gnu/inc/tx_port.h **** __attribute__( ( always_inline ) ) static inline void __restore_interrupt(unsigned int int_posture)
 557:Middlewares/ST/threadx/ports/cortex_m4/gnu/inc/tx_port.h **** {
 558:Middlewares/ST/threadx/ports/cortex_m4/gnu/inc/tx_port.h **** #ifdef TX_PORT_USE_BASEPRI
 559:Middlewares/ST/threadx/ports/cortex_m4/gnu/inc/tx_port.h ****     __set_basepri_value(int_posture);
ARM GAS  /var/folders/pn/6vkv57yd1x9dxx59v7t3_slc0000gn/T//cc3QrNNe.s 			page 14


 560:Middlewares/ST/threadx/ports/cortex_m4/gnu/inc/tx_port.h ****     //__asm__ volatile ("MSR  BASEPRI,%0": : "r" (int_posture): "memory");
 561:Middlewares/ST/threadx/ports/cortex_m4/gnu/inc/tx_port.h **** #else
 562:Middlewares/ST/threadx/ports/cortex_m4/gnu/inc/tx_port.h ****     __asm__ volatile ("MSR  PRIMASK,%0": : "r" (int_posture): "memory");
 563:Middlewares/ST/threadx/ports/cortex_m4/gnu/inc/tx_port.h **** #endif
 564:Middlewares/ST/threadx/ports/cortex_m4/gnu/inc/tx_port.h **** }
 565:Middlewares/ST/threadx/ports/cortex_m4/gnu/inc/tx_port.h **** 
 566:Middlewares/ST/threadx/ports/cortex_m4/gnu/inc/tx_port.h **** __attribute__( ( always_inline ) ) static inline unsigned int __disable_interrupts(void)
  74              		.loc 2 566 63 view .LVU21
  75              	.LBB37:
 567:Middlewares/ST/threadx/ports/cortex_m4/gnu/inc/tx_port.h **** {
 568:Middlewares/ST/threadx/ports/cortex_m4/gnu/inc/tx_port.h **** unsigned int int_posture;
  76              		.loc 2 568 1 view .LVU22
 569:Middlewares/ST/threadx/ports/cortex_m4/gnu/inc/tx_port.h **** 
 570:Middlewares/ST/threadx/ports/cortex_m4/gnu/inc/tx_port.h ****     int_posture = __get_interrupt_posture();
  77              		.loc 2 570 5 view .LVU23
  78              	.LBB38:
  79              	.LBI38:
 533:Middlewares/ST/threadx/ports/cortex_m4/gnu/inc/tx_port.h **** {
  80              		.loc 2 533 63 view .LVU24
  81              	.LBB39:
 535:Middlewares/ST/threadx/ports/cortex_m4/gnu/inc/tx_port.h **** #ifdef TX_PORT_USE_BASEPRI
  82              		.loc 2 535 1 view .LVU25
 539:Middlewares/ST/threadx/ports/cortex_m4/gnu/inc/tx_port.h **** #endif
  83              		.loc 2 539 5 view .LVU26
  84              		.syntax unified
  85              	@ 539 "Middlewares/ST/threadx/ports/cortex_m4/gnu/inc/tx_port.h" 1
  86 000a EFF3108E 		MRS  lr, PRIMASK 
  87              	@ 0 "" 2
 541:Middlewares/ST/threadx/ports/cortex_m4/gnu/inc/tx_port.h **** }
  88              		.loc 2 541 5 view .LVU27
  89              	.LVL1:
 541:Middlewares/ST/threadx/ports/cortex_m4/gnu/inc/tx_port.h **** }
  90              		.loc 2 541 5 is_stmt 0 view .LVU28
  91              		.thumb
  92              		.syntax unified
  93              	.LBE39:
  94              	.LBE38:
 571:Middlewares/ST/threadx/ports/cortex_m4/gnu/inc/tx_port.h **** 
 572:Middlewares/ST/threadx/ports/cortex_m4/gnu/inc/tx_port.h **** #ifdef TX_PORT_USE_BASEPRI
 573:Middlewares/ST/threadx/ports/cortex_m4/gnu/inc/tx_port.h ****     __set_basepri_value(TX_PORT_BASEPRI);
 574:Middlewares/ST/threadx/ports/cortex_m4/gnu/inc/tx_port.h **** #else
 575:Middlewares/ST/threadx/ports/cortex_m4/gnu/inc/tx_port.h ****     __asm__ volatile ("CPSID i" : : : "memory");
  95              		.loc 2 575 5 is_stmt 1 view .LVU29
  96              		.syntax unified
  97              	@ 575 "Middlewares/ST/threadx/ports/cortex_m4/gnu/inc/tx_port.h" 1
  98 000e 72B6     		CPSID i
  99              	@ 0 "" 2
 576:Middlewares/ST/threadx/ports/cortex_m4/gnu/inc/tx_port.h **** #endif
 577:Middlewares/ST/threadx/ports/cortex_m4/gnu/inc/tx_port.h ****     return(int_posture);
 100              		.loc 2 577 5 view .LVU30
 101              	.LVL2:
 102              		.loc 2 577 5 is_stmt 0 view .LVU31
 103              		.thumb
 104              		.syntax unified
 105              	.LBE37:
 106              	.LBE36:
 111:Middlewares/ST/threadx/common/src/tx_event_flags_set.c **** 
ARM GAS  /var/folders/pn/6vkv57yd1x9dxx59v7t3_slc0000gn/T//cc3QrNNe.s 			page 15


 112:Middlewares/ST/threadx/common/src/tx_event_flags_set.c **** #ifdef TX_EVENT_FLAGS_ENABLE_PERFORMANCE_INFO
 113:Middlewares/ST/threadx/common/src/tx_event_flags_set.c **** 
 114:Middlewares/ST/threadx/common/src/tx_event_flags_set.c ****     /* Increment the total event flags set counter.  */
 115:Middlewares/ST/threadx/common/src/tx_event_flags_set.c ****     _tx_event_flags_performance_set_count++;
 116:Middlewares/ST/threadx/common/src/tx_event_flags_set.c **** 
 117:Middlewares/ST/threadx/common/src/tx_event_flags_set.c ****     /* Increment the number of event flags sets on this semaphore.  */
 118:Middlewares/ST/threadx/common/src/tx_event_flags_set.c ****     group_ptr -> tx_event_flags_group_performance_set_count++;
 119:Middlewares/ST/threadx/common/src/tx_event_flags_set.c **** #endif
 120:Middlewares/ST/threadx/common/src/tx_event_flags_set.c **** 
 121:Middlewares/ST/threadx/common/src/tx_event_flags_set.c ****     /* If trace is enabled, insert this event into the trace buffer.  */
 122:Middlewares/ST/threadx/common/src/tx_event_flags_set.c ****     TX_TRACE_IN_LINE_INSERT(TX_TRACE_EVENT_FLAGS_SET, group_ptr, flags_to_set, set_option, group_pt
 123:Middlewares/ST/threadx/common/src/tx_event_flags_set.c **** 
 124:Middlewares/ST/threadx/common/src/tx_event_flags_set.c ****     /* Log this kernel call.  */
 125:Middlewares/ST/threadx/common/src/tx_event_flags_set.c ****     TX_EL_EVENT_FLAGS_SET_INSERT
 126:Middlewares/ST/threadx/common/src/tx_event_flags_set.c **** 
 127:Middlewares/ST/threadx/common/src/tx_event_flags_set.c ****     /* Determine how to set this group's event flags.  */
 128:Middlewares/ST/threadx/common/src/tx_event_flags_set.c ****     if ((set_option & TX_EVENT_FLAGS_AND_MASK) == TX_AND)
 107              		.loc 1 128 5 is_stmt 1 view .LVU32
 108              		.loc 1 128 8 is_stmt 0 view .LVU33
 109 0010 12F00202 		ands	r2, r2, #2
 110              	.LVL3:
 111              		.loc 1 128 8 view .LVU34
 112 0014 0192     		str	r2, [sp, #4]
 113 0016 13D0     		beq	.L2
 129:Middlewares/ST/threadx/common/src/tx_event_flags_set.c ****     {
 130:Middlewares/ST/threadx/common/src/tx_event_flags_set.c **** 
 131:Middlewares/ST/threadx/common/src/tx_event_flags_set.c **** #ifndef TX_NOT_INTERRUPTABLE
 132:Middlewares/ST/threadx/common/src/tx_event_flags_set.c **** 
 133:Middlewares/ST/threadx/common/src/tx_event_flags_set.c ****         /* Set interrupted set request flag to false.  */
 134:Middlewares/ST/threadx/common/src/tx_event_flags_set.c ****         interrupted_set_request =  TX_FALSE;
 114              		.loc 1 134 9 is_stmt 1 view .LVU35
 115              	.LVL4:
 135:Middlewares/ST/threadx/common/src/tx_event_flags_set.c **** 
 136:Middlewares/ST/threadx/common/src/tx_event_flags_set.c ****         /* Determine if the suspension list is being processed by an interrupted
 137:Middlewares/ST/threadx/common/src/tx_event_flags_set.c ****            set request.  */
 138:Middlewares/ST/threadx/common/src/tx_event_flags_set.c ****         if (group_ptr -> tx_event_flags_group_suspended_count != TX_NO_SUSPENSIONS)
 116              		.loc 1 138 9 view .LVU36
 117              		.loc 1 138 23 is_stmt 0 view .LVU37
 118 0018 4269     		ldr	r2, [r0, #20]
 119              		.loc 1 138 12 view .LVU38
 120 001a 0AB1     		cbz	r2, .L3
 139:Middlewares/ST/threadx/common/src/tx_event_flags_set.c ****         {
 140:Middlewares/ST/threadx/common/src/tx_event_flags_set.c **** 
 141:Middlewares/ST/threadx/common/src/tx_event_flags_set.c ****             if (group_ptr -> tx_event_flags_group_suspension_list == TX_NULL)
 121              		.loc 1 141 13 is_stmt 1 view .LVU39
 122              		.loc 1 141 27 is_stmt 0 view .LVU40
 123 001c 0269     		ldr	r2, [r0, #16]
 124              		.loc 1 141 16 view .LVU41
 125 001e 52B1     		cbz	r2, .L33
 126              	.L3:
 127              	.LVL5:
 142:Middlewares/ST/threadx/common/src/tx_event_flags_set.c ****             {
 143:Middlewares/ST/threadx/common/src/tx_event_flags_set.c **** 
 144:Middlewares/ST/threadx/common/src/tx_event_flags_set.c ****                 /* Set the interrupted set request flag.  */
 145:Middlewares/ST/threadx/common/src/tx_event_flags_set.c ****                 interrupted_set_request =  TX_TRUE;
 146:Middlewares/ST/threadx/common/src/tx_event_flags_set.c ****             }
 147:Middlewares/ST/threadx/common/src/tx_event_flags_set.c ****         }
ARM GAS  /var/folders/pn/6vkv57yd1x9dxx59v7t3_slc0000gn/T//cc3QrNNe.s 			page 16


 148:Middlewares/ST/threadx/common/src/tx_event_flags_set.c **** 
 149:Middlewares/ST/threadx/common/src/tx_event_flags_set.c ****         /* Was a set request interrupted?  */
 150:Middlewares/ST/threadx/common/src/tx_event_flags_set.c ****         if (interrupted_set_request == TX_TRUE)
 151:Middlewares/ST/threadx/common/src/tx_event_flags_set.c ****         {
 152:Middlewares/ST/threadx/common/src/tx_event_flags_set.c **** 
 153:Middlewares/ST/threadx/common/src/tx_event_flags_set.c ****             /* A previous set operation was interrupted, we need to defer the
 154:Middlewares/ST/threadx/common/src/tx_event_flags_set.c ****                event clearing until the set operation is complete.  */
 155:Middlewares/ST/threadx/common/src/tx_event_flags_set.c **** 
 156:Middlewares/ST/threadx/common/src/tx_event_flags_set.c ****             /* Remember the events to clear.  */
 157:Middlewares/ST/threadx/common/src/tx_event_flags_set.c ****             group_ptr -> tx_event_flags_group_delayed_clear =
 158:Middlewares/ST/threadx/common/src/tx_event_flags_set.c ****                                         group_ptr -> tx_event_flags_group_delayed_clear | ~flags_to
 159:Middlewares/ST/threadx/common/src/tx_event_flags_set.c ****         }
 160:Middlewares/ST/threadx/common/src/tx_event_flags_set.c ****         else
 161:Middlewares/ST/threadx/common/src/tx_event_flags_set.c ****         {
 162:Middlewares/ST/threadx/common/src/tx_event_flags_set.c **** #endif
 163:Middlewares/ST/threadx/common/src/tx_event_flags_set.c **** 
 164:Middlewares/ST/threadx/common/src/tx_event_flags_set.c ****             /* Previous set operation was not interrupted, simply clear the
 165:Middlewares/ST/threadx/common/src/tx_event_flags_set.c ****                specified flags by "ANDing" the flags into the current events
 166:Middlewares/ST/threadx/common/src/tx_event_flags_set.c ****                of the group.  */
 167:Middlewares/ST/threadx/common/src/tx_event_flags_set.c ****             group_ptr -> tx_event_flags_group_current =
 128              		.loc 1 167 13 is_stmt 1 view .LVU42
 168:Middlewares/ST/threadx/common/src/tx_event_flags_set.c ****                 group_ptr -> tx_event_flags_group_current & flags_to_set;
 129              		.loc 1 168 27 is_stmt 0 view .LVU43
 130 0020 DCF80820 		ldr	r2, [ip, #8]
 131              		.loc 1 168 59 view .LVU44
 132 0024 1A40     		ands	r2, r2, r3
 167:Middlewares/ST/threadx/common/src/tx_event_flags_set.c ****                 group_ptr -> tx_event_flags_group_current & flags_to_set;
 133              		.loc 1 167 55 view .LVU45
 134 0026 CCF80820 		str	r2, [ip, #8]
 135              	.L4:
 169:Middlewares/ST/threadx/common/src/tx_event_flags_set.c **** 
 170:Middlewares/ST/threadx/common/src/tx_event_flags_set.c **** #ifndef TX_NOT_INTERRUPTABLE
 171:Middlewares/ST/threadx/common/src/tx_event_flags_set.c **** 
 172:Middlewares/ST/threadx/common/src/tx_event_flags_set.c ****         }
 173:Middlewares/ST/threadx/common/src/tx_event_flags_set.c **** #endif
 174:Middlewares/ST/threadx/common/src/tx_event_flags_set.c **** 
 175:Middlewares/ST/threadx/common/src/tx_event_flags_set.c ****         /* Restore interrupts.  */
 176:Middlewares/ST/threadx/common/src/tx_event_flags_set.c ****         TX_RESTORE
 136              		.loc 1 176 9 is_stmt 1 view .LVU46
 137              	.LVL6:
 138              	.LBB40:
 139              	.LBI40:
 556:Middlewares/ST/threadx/ports/cortex_m4/gnu/inc/tx_port.h **** {
 140              		.loc 2 556 55 view .LVU47
 141              	.LBB41:
 562:Middlewares/ST/threadx/ports/cortex_m4/gnu/inc/tx_port.h **** #endif
 142              		.loc 2 562 5 view .LVU48
 143              		.syntax unified
 144              	@ 562 "Middlewares/ST/threadx/ports/cortex_m4/gnu/inc/tx_port.h" 1
 145 002a 8EF31088 		MSR  PRIMASK,lr
 146              	@ 0 "" 2
 147              	.LVL7:
 148              		.thumb
 149              		.syntax unified
 150              	.L5:
 562:Middlewares/ST/threadx/ports/cortex_m4/gnu/inc/tx_port.h **** #endif
 151              		.loc 2 562 5 is_stmt 0 view .LVU49
ARM GAS  /var/folders/pn/6vkv57yd1x9dxx59v7t3_slc0000gn/T//cc3QrNNe.s 			page 17


 152              	.LBE41:
 153              	.LBE40:
 177:Middlewares/ST/threadx/common/src/tx_event_flags_set.c ****     }
 178:Middlewares/ST/threadx/common/src/tx_event_flags_set.c ****     else
 179:Middlewares/ST/threadx/common/src/tx_event_flags_set.c ****     {
 180:Middlewares/ST/threadx/common/src/tx_event_flags_set.c **** 
 181:Middlewares/ST/threadx/common/src/tx_event_flags_set.c **** #ifndef TX_DISABLE_NOTIFY_CALLBACKS
 182:Middlewares/ST/threadx/common/src/tx_event_flags_set.c **** 
 183:Middlewares/ST/threadx/common/src/tx_event_flags_set.c ****         /* Pickup the notify callback routine for this event flag group.  */
 184:Middlewares/ST/threadx/common/src/tx_event_flags_set.c ****         events_set_notify =  group_ptr -> tx_event_flags_group_set_notify;
 185:Middlewares/ST/threadx/common/src/tx_event_flags_set.c **** #endif
 186:Middlewares/ST/threadx/common/src/tx_event_flags_set.c **** 
 187:Middlewares/ST/threadx/common/src/tx_event_flags_set.c ****         /* "OR" the flags into the current events of the group.  */
 188:Middlewares/ST/threadx/common/src/tx_event_flags_set.c ****         group_ptr -> tx_event_flags_group_current =
 189:Middlewares/ST/threadx/common/src/tx_event_flags_set.c ****             group_ptr -> tx_event_flags_group_current | flags_to_set;
 190:Middlewares/ST/threadx/common/src/tx_event_flags_set.c **** 
 191:Middlewares/ST/threadx/common/src/tx_event_flags_set.c **** #ifndef TX_NOT_INTERRUPTABLE
 192:Middlewares/ST/threadx/common/src/tx_event_flags_set.c **** 
 193:Middlewares/ST/threadx/common/src/tx_event_flags_set.c ****         /* Determine if there are any delayed flags to clear.  */
 194:Middlewares/ST/threadx/common/src/tx_event_flags_set.c ****         if (group_ptr -> tx_event_flags_group_delayed_clear != ((ULONG) 0))
 195:Middlewares/ST/threadx/common/src/tx_event_flags_set.c ****         {
 196:Middlewares/ST/threadx/common/src/tx_event_flags_set.c **** 
 197:Middlewares/ST/threadx/common/src/tx_event_flags_set.c ****             /* Yes, we need to neutralize the delayed clearing as well.  */
 198:Middlewares/ST/threadx/common/src/tx_event_flags_set.c ****             group_ptr -> tx_event_flags_group_delayed_clear =
 199:Middlewares/ST/threadx/common/src/tx_event_flags_set.c ****                                         group_ptr -> tx_event_flags_group_delayed_clear & ~flags_to
 200:Middlewares/ST/threadx/common/src/tx_event_flags_set.c ****         }
 201:Middlewares/ST/threadx/common/src/tx_event_flags_set.c **** #endif
 202:Middlewares/ST/threadx/common/src/tx_event_flags_set.c **** 
 203:Middlewares/ST/threadx/common/src/tx_event_flags_set.c ****         /* Clear the preempt check flag.  */
 204:Middlewares/ST/threadx/common/src/tx_event_flags_set.c ****         preempt_check =  TX_FALSE;
 205:Middlewares/ST/threadx/common/src/tx_event_flags_set.c **** 
 206:Middlewares/ST/threadx/common/src/tx_event_flags_set.c ****         /* Pickup the thread suspended count.  */
 207:Middlewares/ST/threadx/common/src/tx_event_flags_set.c ****         suspended_count =  group_ptr -> tx_event_flags_group_suspended_count;
 208:Middlewares/ST/threadx/common/src/tx_event_flags_set.c **** 
 209:Middlewares/ST/threadx/common/src/tx_event_flags_set.c ****         /* Determine if there are any threads suspended on the event flag group.  */
 210:Middlewares/ST/threadx/common/src/tx_event_flags_set.c ****         if (group_ptr -> tx_event_flags_group_suspension_list != TX_NULL)
 211:Middlewares/ST/threadx/common/src/tx_event_flags_set.c ****         {
 212:Middlewares/ST/threadx/common/src/tx_event_flags_set.c **** 
 213:Middlewares/ST/threadx/common/src/tx_event_flags_set.c ****             /* Determine if there is just a single thread waiting on the event
 214:Middlewares/ST/threadx/common/src/tx_event_flags_set.c ****                flag group.  */
 215:Middlewares/ST/threadx/common/src/tx_event_flags_set.c ****             if (suspended_count == ((UINT) 1))
 216:Middlewares/ST/threadx/common/src/tx_event_flags_set.c ****             {
 217:Middlewares/ST/threadx/common/src/tx_event_flags_set.c **** 
 218:Middlewares/ST/threadx/common/src/tx_event_flags_set.c ****                 /* Single thread waiting for event flags.  Bypass the multiple thread
 219:Middlewares/ST/threadx/common/src/tx_event_flags_set.c ****                    logic.  */
 220:Middlewares/ST/threadx/common/src/tx_event_flags_set.c **** 
 221:Middlewares/ST/threadx/common/src/tx_event_flags_set.c ****                 /* Setup thread pointer.  */
 222:Middlewares/ST/threadx/common/src/tx_event_flags_set.c ****                 thread_ptr =  group_ptr -> tx_event_flags_group_suspension_list;
 223:Middlewares/ST/threadx/common/src/tx_event_flags_set.c **** 
 224:Middlewares/ST/threadx/common/src/tx_event_flags_set.c ****                 /* Pickup the current event flags.  */
 225:Middlewares/ST/threadx/common/src/tx_event_flags_set.c ****                 current_event_flags =  group_ptr -> tx_event_flags_group_current;
 226:Middlewares/ST/threadx/common/src/tx_event_flags_set.c **** 
 227:Middlewares/ST/threadx/common/src/tx_event_flags_set.c ****                 /* Pickup the suspend information.  */
 228:Middlewares/ST/threadx/common/src/tx_event_flags_set.c ****                 requested_flags =  thread_ptr -> tx_thread_suspend_info;
 229:Middlewares/ST/threadx/common/src/tx_event_flags_set.c **** 
 230:Middlewares/ST/threadx/common/src/tx_event_flags_set.c ****                 /* Pickup the suspend option.  */
 231:Middlewares/ST/threadx/common/src/tx_event_flags_set.c ****                 get_option =  thread_ptr -> tx_thread_suspend_option;
ARM GAS  /var/folders/pn/6vkv57yd1x9dxx59v7t3_slc0000gn/T//cc3QrNNe.s 			page 18


 232:Middlewares/ST/threadx/common/src/tx_event_flags_set.c **** 
 233:Middlewares/ST/threadx/common/src/tx_event_flags_set.c ****                 /* Isolate the AND selection.  */
 234:Middlewares/ST/threadx/common/src/tx_event_flags_set.c ****                 and_request =  (get_option & TX_AND);
 235:Middlewares/ST/threadx/common/src/tx_event_flags_set.c **** 
 236:Middlewares/ST/threadx/common/src/tx_event_flags_set.c ****                 /* Check for AND condition. All flags must be present to satisfy request.  */
 237:Middlewares/ST/threadx/common/src/tx_event_flags_set.c ****                 if (and_request == TX_AND)
 238:Middlewares/ST/threadx/common/src/tx_event_flags_set.c ****                 {
 239:Middlewares/ST/threadx/common/src/tx_event_flags_set.c **** 
 240:Middlewares/ST/threadx/common/src/tx_event_flags_set.c ****                     /* AND request is present.  */
 241:Middlewares/ST/threadx/common/src/tx_event_flags_set.c **** 
 242:Middlewares/ST/threadx/common/src/tx_event_flags_set.c ****                     /* Calculate the flags present.  */
 243:Middlewares/ST/threadx/common/src/tx_event_flags_set.c ****                     flags_satisfied =  (current_event_flags & requested_flags);
 244:Middlewares/ST/threadx/common/src/tx_event_flags_set.c **** 
 245:Middlewares/ST/threadx/common/src/tx_event_flags_set.c ****                     /* Determine if they satisfy the AND request.  */
 246:Middlewares/ST/threadx/common/src/tx_event_flags_set.c ****                     if (flags_satisfied != requested_flags)
 247:Middlewares/ST/threadx/common/src/tx_event_flags_set.c ****                     {
 248:Middlewares/ST/threadx/common/src/tx_event_flags_set.c **** 
 249:Middlewares/ST/threadx/common/src/tx_event_flags_set.c ****                         /* No, not all the requested flags are present. Clear the flags present var
 250:Middlewares/ST/threadx/common/src/tx_event_flags_set.c ****                         flags_satisfied =  ((ULONG) 0);
 251:Middlewares/ST/threadx/common/src/tx_event_flags_set.c ****                     }
 252:Middlewares/ST/threadx/common/src/tx_event_flags_set.c ****                 }
 253:Middlewares/ST/threadx/common/src/tx_event_flags_set.c ****                 else
 254:Middlewares/ST/threadx/common/src/tx_event_flags_set.c ****                 {
 255:Middlewares/ST/threadx/common/src/tx_event_flags_set.c **** 
 256:Middlewares/ST/threadx/common/src/tx_event_flags_set.c ****                     /* OR request is present. Simply or the requested flags and the current flags. 
 257:Middlewares/ST/threadx/common/src/tx_event_flags_set.c ****                     flags_satisfied =  (current_event_flags & requested_flags);
 258:Middlewares/ST/threadx/common/src/tx_event_flags_set.c ****                 }
 259:Middlewares/ST/threadx/common/src/tx_event_flags_set.c **** 
 260:Middlewares/ST/threadx/common/src/tx_event_flags_set.c ****                 /* Determine if the request is satisfied.  */
 261:Middlewares/ST/threadx/common/src/tx_event_flags_set.c ****                 if (flags_satisfied != ((ULONG) 0))
 262:Middlewares/ST/threadx/common/src/tx_event_flags_set.c ****                 {
 263:Middlewares/ST/threadx/common/src/tx_event_flags_set.c **** 
 264:Middlewares/ST/threadx/common/src/tx_event_flags_set.c ****                     /* Yes, resume the thread and apply any event flag
 265:Middlewares/ST/threadx/common/src/tx_event_flags_set.c ****                        clearing.  */
 266:Middlewares/ST/threadx/common/src/tx_event_flags_set.c **** 
 267:Middlewares/ST/threadx/common/src/tx_event_flags_set.c ****                     /* Set the preempt check flag.  */
 268:Middlewares/ST/threadx/common/src/tx_event_flags_set.c ****                     preempt_check =  TX_TRUE;
 269:Middlewares/ST/threadx/common/src/tx_event_flags_set.c **** 
 270:Middlewares/ST/threadx/common/src/tx_event_flags_set.c ****                     /* Return the actual event flags that satisfied the request.  */
 271:Middlewares/ST/threadx/common/src/tx_event_flags_set.c ****                     suspend_info_ptr =   TX_VOID_TO_ULONG_POINTER_CONVERT(thread_ptr -> tx_thread_a
 272:Middlewares/ST/threadx/common/src/tx_event_flags_set.c ****                     *suspend_info_ptr =  current_event_flags;
 273:Middlewares/ST/threadx/common/src/tx_event_flags_set.c **** 
 274:Middlewares/ST/threadx/common/src/tx_event_flags_set.c ****                     /* Pickup the clear bit.  */
 275:Middlewares/ST/threadx/common/src/tx_event_flags_set.c ****                     clear_request =  (get_option & TX_EVENT_FLAGS_CLEAR_MASK);
 276:Middlewares/ST/threadx/common/src/tx_event_flags_set.c **** 
 277:Middlewares/ST/threadx/common/src/tx_event_flags_set.c ****                     /* Determine whether or not clearing needs to take place.  */
 278:Middlewares/ST/threadx/common/src/tx_event_flags_set.c ****                     if (clear_request == TX_TRUE)
 279:Middlewares/ST/threadx/common/src/tx_event_flags_set.c ****                     {
 280:Middlewares/ST/threadx/common/src/tx_event_flags_set.c **** 
 281:Middlewares/ST/threadx/common/src/tx_event_flags_set.c ****                         /* Yes, clear the flags that satisfied this request.  */
 282:Middlewares/ST/threadx/common/src/tx_event_flags_set.c ****                         group_ptr -> tx_event_flags_group_current =  group_ptr -> tx_event_flags_gr
 283:Middlewares/ST/threadx/common/src/tx_event_flags_set.c ****                     }
 284:Middlewares/ST/threadx/common/src/tx_event_flags_set.c **** 
 285:Middlewares/ST/threadx/common/src/tx_event_flags_set.c ****                     /* Clear the suspension information in the event flag group.  */
 286:Middlewares/ST/threadx/common/src/tx_event_flags_set.c ****                     group_ptr -> tx_event_flags_group_suspension_list =  TX_NULL;
 287:Middlewares/ST/threadx/common/src/tx_event_flags_set.c ****                     group_ptr -> tx_event_flags_group_suspended_count =  TX_NO_SUSPENSIONS;
 288:Middlewares/ST/threadx/common/src/tx_event_flags_set.c **** 
ARM GAS  /var/folders/pn/6vkv57yd1x9dxx59v7t3_slc0000gn/T//cc3QrNNe.s 			page 19


 289:Middlewares/ST/threadx/common/src/tx_event_flags_set.c ****                     /* Clear cleanup routine to avoid timeout.  */
 290:Middlewares/ST/threadx/common/src/tx_event_flags_set.c ****                     thread_ptr -> tx_thread_suspend_cleanup =  TX_NULL;
 291:Middlewares/ST/threadx/common/src/tx_event_flags_set.c **** 
 292:Middlewares/ST/threadx/common/src/tx_event_flags_set.c ****                     /* Put return status into the thread control block.  */
 293:Middlewares/ST/threadx/common/src/tx_event_flags_set.c ****                     thread_ptr -> tx_thread_suspend_status =  TX_SUCCESS;
 294:Middlewares/ST/threadx/common/src/tx_event_flags_set.c **** 
 295:Middlewares/ST/threadx/common/src/tx_event_flags_set.c **** #ifdef TX_NOT_INTERRUPTABLE
 296:Middlewares/ST/threadx/common/src/tx_event_flags_set.c **** 
 297:Middlewares/ST/threadx/common/src/tx_event_flags_set.c ****                     /* Resume the thread!  */
 298:Middlewares/ST/threadx/common/src/tx_event_flags_set.c ****                     _tx_thread_system_ni_resume(thread_ptr);
 299:Middlewares/ST/threadx/common/src/tx_event_flags_set.c **** #else
 300:Middlewares/ST/threadx/common/src/tx_event_flags_set.c **** 
 301:Middlewares/ST/threadx/common/src/tx_event_flags_set.c ****                     /* Temporarily disable preemption.  */
 302:Middlewares/ST/threadx/common/src/tx_event_flags_set.c ****                     _tx_thread_preempt_disable++;
 303:Middlewares/ST/threadx/common/src/tx_event_flags_set.c **** 
 304:Middlewares/ST/threadx/common/src/tx_event_flags_set.c ****                     /* Restore interrupts.  */
 305:Middlewares/ST/threadx/common/src/tx_event_flags_set.c ****                     TX_RESTORE
 306:Middlewares/ST/threadx/common/src/tx_event_flags_set.c **** 
 307:Middlewares/ST/threadx/common/src/tx_event_flags_set.c ****                     /* Resume thread.  */
 308:Middlewares/ST/threadx/common/src/tx_event_flags_set.c ****                     _tx_thread_system_resume(thread_ptr);
 309:Middlewares/ST/threadx/common/src/tx_event_flags_set.c **** 
 310:Middlewares/ST/threadx/common/src/tx_event_flags_set.c ****                     /* Disable interrupts to remove the semaphore from the created list.  */
 311:Middlewares/ST/threadx/common/src/tx_event_flags_set.c ****                     TX_DISABLE
 312:Middlewares/ST/threadx/common/src/tx_event_flags_set.c **** #endif
 313:Middlewares/ST/threadx/common/src/tx_event_flags_set.c ****                 }
 314:Middlewares/ST/threadx/common/src/tx_event_flags_set.c ****             }
 315:Middlewares/ST/threadx/common/src/tx_event_flags_set.c ****             else
 316:Middlewares/ST/threadx/common/src/tx_event_flags_set.c ****             {
 317:Middlewares/ST/threadx/common/src/tx_event_flags_set.c **** 
 318:Middlewares/ST/threadx/common/src/tx_event_flags_set.c ****                 /* Otherwise, the event flag requests of multiple threads must be
 319:Middlewares/ST/threadx/common/src/tx_event_flags_set.c ****                    examined.  */
 320:Middlewares/ST/threadx/common/src/tx_event_flags_set.c **** 
 321:Middlewares/ST/threadx/common/src/tx_event_flags_set.c ****                 /* Setup thread pointer, keep a local copy of the head pointer.  */
 322:Middlewares/ST/threadx/common/src/tx_event_flags_set.c ****                 suspended_list =  group_ptr -> tx_event_flags_group_suspension_list;
 323:Middlewares/ST/threadx/common/src/tx_event_flags_set.c ****                 thread_ptr =      suspended_list;
 324:Middlewares/ST/threadx/common/src/tx_event_flags_set.c **** 
 325:Middlewares/ST/threadx/common/src/tx_event_flags_set.c ****                 /* Clear the suspended list head pointer to thwart manipulation of
 326:Middlewares/ST/threadx/common/src/tx_event_flags_set.c ****                    the list in ISR's while we are processing here.  */
 327:Middlewares/ST/threadx/common/src/tx_event_flags_set.c ****                 group_ptr -> tx_event_flags_group_suspension_list =  TX_NULL;
 328:Middlewares/ST/threadx/common/src/tx_event_flags_set.c **** 
 329:Middlewares/ST/threadx/common/src/tx_event_flags_set.c ****                 /* Setup the satisfied thread pointers.  */
 330:Middlewares/ST/threadx/common/src/tx_event_flags_set.c ****                 satisfied_list =  TX_NULL;
 331:Middlewares/ST/threadx/common/src/tx_event_flags_set.c ****                 last_satisfied =  TX_NULL;
 332:Middlewares/ST/threadx/common/src/tx_event_flags_set.c **** 
 333:Middlewares/ST/threadx/common/src/tx_event_flags_set.c ****                 /* Pickup the current event flags.  */
 334:Middlewares/ST/threadx/common/src/tx_event_flags_set.c ****                 current_event_flags =  group_ptr -> tx_event_flags_group_current;
 335:Middlewares/ST/threadx/common/src/tx_event_flags_set.c **** 
 336:Middlewares/ST/threadx/common/src/tx_event_flags_set.c ****                 /* Disable preemption while we process the suspended list.  */
 337:Middlewares/ST/threadx/common/src/tx_event_flags_set.c ****                 _tx_thread_preempt_disable++;
 338:Middlewares/ST/threadx/common/src/tx_event_flags_set.c **** 
 339:Middlewares/ST/threadx/common/src/tx_event_flags_set.c ****                 /* Loop to examine all of the suspended threads. */
 340:Middlewares/ST/threadx/common/src/tx_event_flags_set.c ****                 do
 341:Middlewares/ST/threadx/common/src/tx_event_flags_set.c ****                 {
 342:Middlewares/ST/threadx/common/src/tx_event_flags_set.c **** 
 343:Middlewares/ST/threadx/common/src/tx_event_flags_set.c **** #ifndef TX_NOT_INTERRUPTABLE
 344:Middlewares/ST/threadx/common/src/tx_event_flags_set.c **** 
 345:Middlewares/ST/threadx/common/src/tx_event_flags_set.c ****                     /* Restore interrupts temporarily.  */
ARM GAS  /var/folders/pn/6vkv57yd1x9dxx59v7t3_slc0000gn/T//cc3QrNNe.s 			page 20


 346:Middlewares/ST/threadx/common/src/tx_event_flags_set.c ****                     TX_RESTORE
 347:Middlewares/ST/threadx/common/src/tx_event_flags_set.c **** 
 348:Middlewares/ST/threadx/common/src/tx_event_flags_set.c ****                     /* Disable interrupts again.  */
 349:Middlewares/ST/threadx/common/src/tx_event_flags_set.c ****                     TX_DISABLE
 350:Middlewares/ST/threadx/common/src/tx_event_flags_set.c **** #endif
 351:Middlewares/ST/threadx/common/src/tx_event_flags_set.c **** 
 352:Middlewares/ST/threadx/common/src/tx_event_flags_set.c ****                     /* Determine if we need to reset the search.  */
 353:Middlewares/ST/threadx/common/src/tx_event_flags_set.c ****                     if (group_ptr -> tx_event_flags_group_reset_search != TX_FALSE)
 354:Middlewares/ST/threadx/common/src/tx_event_flags_set.c ****                     {
 355:Middlewares/ST/threadx/common/src/tx_event_flags_set.c **** 
 356:Middlewares/ST/threadx/common/src/tx_event_flags_set.c ****                         /* Clear the reset search flag.  */
 357:Middlewares/ST/threadx/common/src/tx_event_flags_set.c ****                         group_ptr -> tx_event_flags_group_reset_search =  TX_FALSE;
 358:Middlewares/ST/threadx/common/src/tx_event_flags_set.c **** 
 359:Middlewares/ST/threadx/common/src/tx_event_flags_set.c ****                         /* Move the thread pointer to the beginning of the search list.  */
 360:Middlewares/ST/threadx/common/src/tx_event_flags_set.c ****                         thread_ptr =  suspended_list;
 361:Middlewares/ST/threadx/common/src/tx_event_flags_set.c **** 
 362:Middlewares/ST/threadx/common/src/tx_event_flags_set.c ****                         /* Reset the suspended count.  */
 363:Middlewares/ST/threadx/common/src/tx_event_flags_set.c ****                         suspended_count =  group_ptr -> tx_event_flags_group_suspended_count;
 364:Middlewares/ST/threadx/common/src/tx_event_flags_set.c **** 
 365:Middlewares/ST/threadx/common/src/tx_event_flags_set.c ****                         /* Update the current events with any new ones that might
 366:Middlewares/ST/threadx/common/src/tx_event_flags_set.c ****                            have been set in a nested set events call from an ISR.  */
 367:Middlewares/ST/threadx/common/src/tx_event_flags_set.c ****                         current_event_flags =  current_event_flags | group_ptr -> tx_event_flags_gr
 368:Middlewares/ST/threadx/common/src/tx_event_flags_set.c ****                     }
 369:Middlewares/ST/threadx/common/src/tx_event_flags_set.c **** 
 370:Middlewares/ST/threadx/common/src/tx_event_flags_set.c ****                     /* Save next thread pointer.  */
 371:Middlewares/ST/threadx/common/src/tx_event_flags_set.c ****                     next_thread_ptr =  thread_ptr -> tx_thread_suspended_next;
 372:Middlewares/ST/threadx/common/src/tx_event_flags_set.c **** 
 373:Middlewares/ST/threadx/common/src/tx_event_flags_set.c ****                     /* Pickup the suspend information.  */
 374:Middlewares/ST/threadx/common/src/tx_event_flags_set.c ****                     requested_flags =  thread_ptr -> tx_thread_suspend_info;
 375:Middlewares/ST/threadx/common/src/tx_event_flags_set.c **** 
 376:Middlewares/ST/threadx/common/src/tx_event_flags_set.c ****                     /* Pickup this thread's suspension get option.  */
 377:Middlewares/ST/threadx/common/src/tx_event_flags_set.c ****                     get_option =  thread_ptr -> tx_thread_suspend_option;
 378:Middlewares/ST/threadx/common/src/tx_event_flags_set.c **** 
 379:Middlewares/ST/threadx/common/src/tx_event_flags_set.c ****                     /* Isolate the AND selection.  */
 380:Middlewares/ST/threadx/common/src/tx_event_flags_set.c ****                     and_request =  (get_option & TX_AND);
 381:Middlewares/ST/threadx/common/src/tx_event_flags_set.c **** 
 382:Middlewares/ST/threadx/common/src/tx_event_flags_set.c ****                     /* Check for AND condition. All flags must be present to satisfy request.  */
 383:Middlewares/ST/threadx/common/src/tx_event_flags_set.c ****                     if (and_request == TX_AND)
 384:Middlewares/ST/threadx/common/src/tx_event_flags_set.c ****                     {
 385:Middlewares/ST/threadx/common/src/tx_event_flags_set.c **** 
 386:Middlewares/ST/threadx/common/src/tx_event_flags_set.c ****                         /* AND request is present.  */
 387:Middlewares/ST/threadx/common/src/tx_event_flags_set.c **** 
 388:Middlewares/ST/threadx/common/src/tx_event_flags_set.c ****                         /* Calculate the flags present.  */
 389:Middlewares/ST/threadx/common/src/tx_event_flags_set.c ****                         flags_satisfied =  (current_event_flags & requested_flags);
 390:Middlewares/ST/threadx/common/src/tx_event_flags_set.c **** 
 391:Middlewares/ST/threadx/common/src/tx_event_flags_set.c ****                         /* Determine if they satisfy the AND request.  */
 392:Middlewares/ST/threadx/common/src/tx_event_flags_set.c ****                         if (flags_satisfied != requested_flags)
 393:Middlewares/ST/threadx/common/src/tx_event_flags_set.c ****                         {
 394:Middlewares/ST/threadx/common/src/tx_event_flags_set.c **** 
 395:Middlewares/ST/threadx/common/src/tx_event_flags_set.c ****                             /* No, not all the requested flags are present. Clear the flags present
 396:Middlewares/ST/threadx/common/src/tx_event_flags_set.c ****                             flags_satisfied =  ((ULONG) 0);
 397:Middlewares/ST/threadx/common/src/tx_event_flags_set.c ****                         }
 398:Middlewares/ST/threadx/common/src/tx_event_flags_set.c ****                     }
 399:Middlewares/ST/threadx/common/src/tx_event_flags_set.c ****                     else
 400:Middlewares/ST/threadx/common/src/tx_event_flags_set.c ****                     {
 401:Middlewares/ST/threadx/common/src/tx_event_flags_set.c **** 
 402:Middlewares/ST/threadx/common/src/tx_event_flags_set.c ****                         /* OR request is present. Simply or the requested flags and the current fla
ARM GAS  /var/folders/pn/6vkv57yd1x9dxx59v7t3_slc0000gn/T//cc3QrNNe.s 			page 21


 403:Middlewares/ST/threadx/common/src/tx_event_flags_set.c ****                         flags_satisfied =  (current_event_flags & requested_flags);
 404:Middlewares/ST/threadx/common/src/tx_event_flags_set.c ****                     }
 405:Middlewares/ST/threadx/common/src/tx_event_flags_set.c **** 
 406:Middlewares/ST/threadx/common/src/tx_event_flags_set.c ****                     /* Check to see if the thread had a timeout or wait abort during the event sear
 407:Middlewares/ST/threadx/common/src/tx_event_flags_set.c ****                        If so, just set the flags satisfied to ensure the processing here removes th
 408:Middlewares/ST/threadx/common/src/tx_event_flags_set.c ****                        the suspension list.  */
 409:Middlewares/ST/threadx/common/src/tx_event_flags_set.c ****                     if (thread_ptr -> tx_thread_state != TX_EVENT_FLAG)
 410:Middlewares/ST/threadx/common/src/tx_event_flags_set.c ****                     {
 411:Middlewares/ST/threadx/common/src/tx_event_flags_set.c **** 
 412:Middlewares/ST/threadx/common/src/tx_event_flags_set.c ****                        /* Simply set the satisfied flags to 1 in order to remove the thread from th
 413:Middlewares/ST/threadx/common/src/tx_event_flags_set.c ****                         flags_satisfied =  ((ULONG) 1);
 414:Middlewares/ST/threadx/common/src/tx_event_flags_set.c ****                     }
 415:Middlewares/ST/threadx/common/src/tx_event_flags_set.c **** 
 416:Middlewares/ST/threadx/common/src/tx_event_flags_set.c ****                     /* Determine if the request is satisfied.  */
 417:Middlewares/ST/threadx/common/src/tx_event_flags_set.c ****                     if (flags_satisfied != ((ULONG) 0))
 418:Middlewares/ST/threadx/common/src/tx_event_flags_set.c ****                     {
 419:Middlewares/ST/threadx/common/src/tx_event_flags_set.c **** 
 420:Middlewares/ST/threadx/common/src/tx_event_flags_set.c ****                         /* Yes, this request can be handled now.  */
 421:Middlewares/ST/threadx/common/src/tx_event_flags_set.c **** 
 422:Middlewares/ST/threadx/common/src/tx_event_flags_set.c ****                         /* Set the preempt check flag.  */
 423:Middlewares/ST/threadx/common/src/tx_event_flags_set.c ****                         preempt_check =  TX_TRUE;
 424:Middlewares/ST/threadx/common/src/tx_event_flags_set.c **** 
 425:Middlewares/ST/threadx/common/src/tx_event_flags_set.c ****                         /* Determine if the thread is still suspended on the event flag group. If n
 426:Middlewares/ST/threadx/common/src/tx_event_flags_set.c ****                            abort must have been done from an ISR.  */
 427:Middlewares/ST/threadx/common/src/tx_event_flags_set.c ****                         if (thread_ptr -> tx_thread_state == TX_EVENT_FLAG)
 428:Middlewares/ST/threadx/common/src/tx_event_flags_set.c ****                         {
 429:Middlewares/ST/threadx/common/src/tx_event_flags_set.c **** 
 430:Middlewares/ST/threadx/common/src/tx_event_flags_set.c ****                             /* Return the actual event flags that satisfied the request.  */
 431:Middlewares/ST/threadx/common/src/tx_event_flags_set.c ****                             suspend_info_ptr =   TX_VOID_TO_ULONG_POINTER_CONVERT(thread_ptr -> tx_
 432:Middlewares/ST/threadx/common/src/tx_event_flags_set.c ****                             *suspend_info_ptr =  current_event_flags;
 433:Middlewares/ST/threadx/common/src/tx_event_flags_set.c **** 
 434:Middlewares/ST/threadx/common/src/tx_event_flags_set.c ****                             /* Pickup the clear bit.  */
 435:Middlewares/ST/threadx/common/src/tx_event_flags_set.c ****                             clear_request =  (get_option & TX_EVENT_FLAGS_CLEAR_MASK);
 436:Middlewares/ST/threadx/common/src/tx_event_flags_set.c **** 
 437:Middlewares/ST/threadx/common/src/tx_event_flags_set.c ****                             /* Determine whether or not clearing needs to take place.  */
 438:Middlewares/ST/threadx/common/src/tx_event_flags_set.c ****                             if (clear_request == TX_TRUE)
 439:Middlewares/ST/threadx/common/src/tx_event_flags_set.c ****                             {
 440:Middlewares/ST/threadx/common/src/tx_event_flags_set.c **** 
 441:Middlewares/ST/threadx/common/src/tx_event_flags_set.c ****                                 /* Yes, clear the flags that satisfied this request.  */
 442:Middlewares/ST/threadx/common/src/tx_event_flags_set.c ****                                 group_ptr -> tx_event_flags_group_current =  group_ptr -> tx_event_
 443:Middlewares/ST/threadx/common/src/tx_event_flags_set.c ****                             }
 444:Middlewares/ST/threadx/common/src/tx_event_flags_set.c **** 
 445:Middlewares/ST/threadx/common/src/tx_event_flags_set.c ****                             /* Prepare for resumption of the first thread.  */
 446:Middlewares/ST/threadx/common/src/tx_event_flags_set.c **** 
 447:Middlewares/ST/threadx/common/src/tx_event_flags_set.c ****                             /* Clear cleanup routine to avoid timeout.  */
 448:Middlewares/ST/threadx/common/src/tx_event_flags_set.c ****                             thread_ptr -> tx_thread_suspend_cleanup =  TX_NULL;
 449:Middlewares/ST/threadx/common/src/tx_event_flags_set.c **** 
 450:Middlewares/ST/threadx/common/src/tx_event_flags_set.c ****                             /* Put return status into the thread control block.  */
 451:Middlewares/ST/threadx/common/src/tx_event_flags_set.c ****                             thread_ptr -> tx_thread_suspend_status =  TX_SUCCESS;
 452:Middlewares/ST/threadx/common/src/tx_event_flags_set.c ****                         }
 453:Middlewares/ST/threadx/common/src/tx_event_flags_set.c **** 
 454:Middlewares/ST/threadx/common/src/tx_event_flags_set.c ****                         /* We need to remove the thread from the suspension list and place it in th
 455:Middlewares/ST/threadx/common/src/tx_event_flags_set.c ****                            expired list.  */
 456:Middlewares/ST/threadx/common/src/tx_event_flags_set.c **** 
 457:Middlewares/ST/threadx/common/src/tx_event_flags_set.c ****                         /* See if this is the only suspended thread on the list.  */
 458:Middlewares/ST/threadx/common/src/tx_event_flags_set.c ****                         if (thread_ptr == thread_ptr -> tx_thread_suspended_next)
 459:Middlewares/ST/threadx/common/src/tx_event_flags_set.c ****                         {
ARM GAS  /var/folders/pn/6vkv57yd1x9dxx59v7t3_slc0000gn/T//cc3QrNNe.s 			page 22


 460:Middlewares/ST/threadx/common/src/tx_event_flags_set.c **** 
 461:Middlewares/ST/threadx/common/src/tx_event_flags_set.c ****                             /* Yes, the only suspended thread.  */
 462:Middlewares/ST/threadx/common/src/tx_event_flags_set.c **** 
 463:Middlewares/ST/threadx/common/src/tx_event_flags_set.c ****                             /* Update the head pointer.  */
 464:Middlewares/ST/threadx/common/src/tx_event_flags_set.c ****                             suspended_list =  TX_NULL;
 465:Middlewares/ST/threadx/common/src/tx_event_flags_set.c ****                         }
 466:Middlewares/ST/threadx/common/src/tx_event_flags_set.c ****                         else
 467:Middlewares/ST/threadx/common/src/tx_event_flags_set.c ****                         {
 468:Middlewares/ST/threadx/common/src/tx_event_flags_set.c **** 
 469:Middlewares/ST/threadx/common/src/tx_event_flags_set.c ****                             /* At least one more thread is on the same expiration list.  */
 470:Middlewares/ST/threadx/common/src/tx_event_flags_set.c **** 
 471:Middlewares/ST/threadx/common/src/tx_event_flags_set.c ****                             /* Update the links of the adjacent threads.  */
 472:Middlewares/ST/threadx/common/src/tx_event_flags_set.c ****                             next_thread =                                  thread_ptr -> tx_thread_
 473:Middlewares/ST/threadx/common/src/tx_event_flags_set.c ****                             previous_thread =                              thread_ptr -> tx_thread_
 474:Middlewares/ST/threadx/common/src/tx_event_flags_set.c ****                             next_thread -> tx_thread_suspended_previous =  previous_thread;
 475:Middlewares/ST/threadx/common/src/tx_event_flags_set.c ****                             previous_thread -> tx_thread_suspended_next =  next_thread;
 476:Middlewares/ST/threadx/common/src/tx_event_flags_set.c **** 
 477:Middlewares/ST/threadx/common/src/tx_event_flags_set.c ****                             /* Update the list head pointer, if removing the head of the
 478:Middlewares/ST/threadx/common/src/tx_event_flags_set.c ****                                list.  */
 479:Middlewares/ST/threadx/common/src/tx_event_flags_set.c ****                             if (suspended_list == thread_ptr)
 480:Middlewares/ST/threadx/common/src/tx_event_flags_set.c ****                             {
 481:Middlewares/ST/threadx/common/src/tx_event_flags_set.c **** 
 482:Middlewares/ST/threadx/common/src/tx_event_flags_set.c ****                                 /* Yes, head pointer needs to be updated.  */
 483:Middlewares/ST/threadx/common/src/tx_event_flags_set.c ****                                 suspended_list =  thread_ptr -> tx_thread_suspended_next;
 484:Middlewares/ST/threadx/common/src/tx_event_flags_set.c ****                             }
 485:Middlewares/ST/threadx/common/src/tx_event_flags_set.c ****                         }
 486:Middlewares/ST/threadx/common/src/tx_event_flags_set.c **** 
 487:Middlewares/ST/threadx/common/src/tx_event_flags_set.c ****                         /* Decrement the suspension count.  */
 488:Middlewares/ST/threadx/common/src/tx_event_flags_set.c ****                         group_ptr -> tx_event_flags_group_suspended_count--;
 489:Middlewares/ST/threadx/common/src/tx_event_flags_set.c **** 
 490:Middlewares/ST/threadx/common/src/tx_event_flags_set.c ****                         /* Place this thread on the expired list.  */
 491:Middlewares/ST/threadx/common/src/tx_event_flags_set.c ****                         if (satisfied_list == TX_NULL)
 492:Middlewares/ST/threadx/common/src/tx_event_flags_set.c ****                         {
 493:Middlewares/ST/threadx/common/src/tx_event_flags_set.c **** 
 494:Middlewares/ST/threadx/common/src/tx_event_flags_set.c ****                             /* First thread on the satisfied list.  */
 495:Middlewares/ST/threadx/common/src/tx_event_flags_set.c ****                             satisfied_list =  thread_ptr;
 496:Middlewares/ST/threadx/common/src/tx_event_flags_set.c ****                             last_satisfied =  thread_ptr;
 497:Middlewares/ST/threadx/common/src/tx_event_flags_set.c **** 
 498:Middlewares/ST/threadx/common/src/tx_event_flags_set.c ****                             /* Setup initial next pointer.  */
 499:Middlewares/ST/threadx/common/src/tx_event_flags_set.c ****                             thread_ptr -> tx_thread_suspended_next =  TX_NULL;
 500:Middlewares/ST/threadx/common/src/tx_event_flags_set.c ****                         }
 501:Middlewares/ST/threadx/common/src/tx_event_flags_set.c ****                         else
 502:Middlewares/ST/threadx/common/src/tx_event_flags_set.c ****                         {
 503:Middlewares/ST/threadx/common/src/tx_event_flags_set.c **** 
 504:Middlewares/ST/threadx/common/src/tx_event_flags_set.c ****                             /* Not the first thread on the satisfied list.  */
 505:Middlewares/ST/threadx/common/src/tx_event_flags_set.c **** 
 506:Middlewares/ST/threadx/common/src/tx_event_flags_set.c ****                             /* Link it up at the end.  */
 507:Middlewares/ST/threadx/common/src/tx_event_flags_set.c ****                             last_satisfied -> tx_thread_suspended_next =  thread_ptr;
 508:Middlewares/ST/threadx/common/src/tx_event_flags_set.c ****                             thread_ptr -> tx_thread_suspended_next =      TX_NULL;
 509:Middlewares/ST/threadx/common/src/tx_event_flags_set.c ****                             last_satisfied =                              thread_ptr;
 510:Middlewares/ST/threadx/common/src/tx_event_flags_set.c ****                         }
 511:Middlewares/ST/threadx/common/src/tx_event_flags_set.c ****                     }
 512:Middlewares/ST/threadx/common/src/tx_event_flags_set.c **** 
 513:Middlewares/ST/threadx/common/src/tx_event_flags_set.c ****                     /* Copy next thread pointer to working thread ptr.  */
 514:Middlewares/ST/threadx/common/src/tx_event_flags_set.c ****                     thread_ptr =  next_thread_ptr;
 515:Middlewares/ST/threadx/common/src/tx_event_flags_set.c **** 
 516:Middlewares/ST/threadx/common/src/tx_event_flags_set.c ****                     /* Decrement the suspension count.  */
ARM GAS  /var/folders/pn/6vkv57yd1x9dxx59v7t3_slc0000gn/T//cc3QrNNe.s 			page 23


 517:Middlewares/ST/threadx/common/src/tx_event_flags_set.c ****                     suspended_count--;
 518:Middlewares/ST/threadx/common/src/tx_event_flags_set.c **** 
 519:Middlewares/ST/threadx/common/src/tx_event_flags_set.c ****                 } while (suspended_count != TX_NO_SUSPENSIONS);
 520:Middlewares/ST/threadx/common/src/tx_event_flags_set.c **** 
 521:Middlewares/ST/threadx/common/src/tx_event_flags_set.c ****                 /* Setup the group's suspension list head again.  */
 522:Middlewares/ST/threadx/common/src/tx_event_flags_set.c ****                 group_ptr -> tx_event_flags_group_suspension_list =  suspended_list;
 523:Middlewares/ST/threadx/common/src/tx_event_flags_set.c **** 
 524:Middlewares/ST/threadx/common/src/tx_event_flags_set.c **** #ifndef TX_NOT_INTERRUPTABLE
 525:Middlewares/ST/threadx/common/src/tx_event_flags_set.c **** 
 526:Middlewares/ST/threadx/common/src/tx_event_flags_set.c ****                 /* Determine if there is any delayed event clearing to perform.  */
 527:Middlewares/ST/threadx/common/src/tx_event_flags_set.c ****                 if (group_ptr -> tx_event_flags_group_delayed_clear != ((ULONG) 0))
 528:Middlewares/ST/threadx/common/src/tx_event_flags_set.c ****                 {
 529:Middlewares/ST/threadx/common/src/tx_event_flags_set.c **** 
 530:Middlewares/ST/threadx/common/src/tx_event_flags_set.c ****                     /* Perform the delayed event clearing.  */
 531:Middlewares/ST/threadx/common/src/tx_event_flags_set.c ****                     group_ptr -> tx_event_flags_group_current =
 532:Middlewares/ST/threadx/common/src/tx_event_flags_set.c ****                         group_ptr -> tx_event_flags_group_current & ~(group_ptr -> tx_event_flags_g
 533:Middlewares/ST/threadx/common/src/tx_event_flags_set.c **** 
 534:Middlewares/ST/threadx/common/src/tx_event_flags_set.c ****                     /* Clear the delayed event flag clear value.  */
 535:Middlewares/ST/threadx/common/src/tx_event_flags_set.c ****                     group_ptr -> tx_event_flags_group_delayed_clear =  ((ULONG) 0);
 536:Middlewares/ST/threadx/common/src/tx_event_flags_set.c ****                 }
 537:Middlewares/ST/threadx/common/src/tx_event_flags_set.c **** #endif
 538:Middlewares/ST/threadx/common/src/tx_event_flags_set.c **** 
 539:Middlewares/ST/threadx/common/src/tx_event_flags_set.c ****                 /* Restore interrupts.  */
 540:Middlewares/ST/threadx/common/src/tx_event_flags_set.c ****                 TX_RESTORE
 541:Middlewares/ST/threadx/common/src/tx_event_flags_set.c **** 
 542:Middlewares/ST/threadx/common/src/tx_event_flags_set.c ****                 /* Walk through the satisfied list, setup initial thread pointer. */
 543:Middlewares/ST/threadx/common/src/tx_event_flags_set.c ****                 thread_ptr =  satisfied_list;
 544:Middlewares/ST/threadx/common/src/tx_event_flags_set.c ****                 while(thread_ptr != TX_NULL)
 545:Middlewares/ST/threadx/common/src/tx_event_flags_set.c ****                 {
 546:Middlewares/ST/threadx/common/src/tx_event_flags_set.c **** 
 547:Middlewares/ST/threadx/common/src/tx_event_flags_set.c ****                     /* Get next pointer first.  */
 548:Middlewares/ST/threadx/common/src/tx_event_flags_set.c ****                     next_thread_ptr =  thread_ptr -> tx_thread_suspended_next;
 549:Middlewares/ST/threadx/common/src/tx_event_flags_set.c **** 
 550:Middlewares/ST/threadx/common/src/tx_event_flags_set.c ****                     /* Disable interrupts.  */
 551:Middlewares/ST/threadx/common/src/tx_event_flags_set.c ****                     TX_DISABLE
 552:Middlewares/ST/threadx/common/src/tx_event_flags_set.c **** 
 553:Middlewares/ST/threadx/common/src/tx_event_flags_set.c **** #ifdef TX_NOT_INTERRUPTABLE
 554:Middlewares/ST/threadx/common/src/tx_event_flags_set.c **** 
 555:Middlewares/ST/threadx/common/src/tx_event_flags_set.c ****                     /* Resume the thread!  */
 556:Middlewares/ST/threadx/common/src/tx_event_flags_set.c ****                     _tx_thread_system_ni_resume(thread_ptr);
 557:Middlewares/ST/threadx/common/src/tx_event_flags_set.c **** 
 558:Middlewares/ST/threadx/common/src/tx_event_flags_set.c ****                     /* Restore interrupts.  */
 559:Middlewares/ST/threadx/common/src/tx_event_flags_set.c ****                     TX_RESTORE
 560:Middlewares/ST/threadx/common/src/tx_event_flags_set.c **** #else
 561:Middlewares/ST/threadx/common/src/tx_event_flags_set.c **** 
 562:Middlewares/ST/threadx/common/src/tx_event_flags_set.c ****                     /* Disable preemption again.  */
 563:Middlewares/ST/threadx/common/src/tx_event_flags_set.c ****                     _tx_thread_preempt_disable++;
 564:Middlewares/ST/threadx/common/src/tx_event_flags_set.c **** 
 565:Middlewares/ST/threadx/common/src/tx_event_flags_set.c ****                     /* Restore interrupt posture.  */
 566:Middlewares/ST/threadx/common/src/tx_event_flags_set.c ****                     TX_RESTORE
 567:Middlewares/ST/threadx/common/src/tx_event_flags_set.c **** 
 568:Middlewares/ST/threadx/common/src/tx_event_flags_set.c ****                     /* Resume the thread.  */
 569:Middlewares/ST/threadx/common/src/tx_event_flags_set.c ****                     _tx_thread_system_resume(thread_ptr);
 570:Middlewares/ST/threadx/common/src/tx_event_flags_set.c **** #endif
 571:Middlewares/ST/threadx/common/src/tx_event_flags_set.c **** 
 572:Middlewares/ST/threadx/common/src/tx_event_flags_set.c ****                     /* Move next thread to current.  */
 573:Middlewares/ST/threadx/common/src/tx_event_flags_set.c ****                     thread_ptr =  next_thread_ptr;
ARM GAS  /var/folders/pn/6vkv57yd1x9dxx59v7t3_slc0000gn/T//cc3QrNNe.s 			page 24


 574:Middlewares/ST/threadx/common/src/tx_event_flags_set.c ****                 }
 575:Middlewares/ST/threadx/common/src/tx_event_flags_set.c **** 
 576:Middlewares/ST/threadx/common/src/tx_event_flags_set.c ****                 /* Disable interrupts.  */
 577:Middlewares/ST/threadx/common/src/tx_event_flags_set.c ****                 TX_DISABLE
 578:Middlewares/ST/threadx/common/src/tx_event_flags_set.c **** 
 579:Middlewares/ST/threadx/common/src/tx_event_flags_set.c ****                 /* Release thread preemption disable.  */
 580:Middlewares/ST/threadx/common/src/tx_event_flags_set.c ****                 _tx_thread_preempt_disable--;
 581:Middlewares/ST/threadx/common/src/tx_event_flags_set.c ****             }
 582:Middlewares/ST/threadx/common/src/tx_event_flags_set.c ****         }
 583:Middlewares/ST/threadx/common/src/tx_event_flags_set.c ****         else
 584:Middlewares/ST/threadx/common/src/tx_event_flags_set.c ****         {
 585:Middlewares/ST/threadx/common/src/tx_event_flags_set.c **** 
 586:Middlewares/ST/threadx/common/src/tx_event_flags_set.c ****             /* Determine if we need to set the reset search field.  */
 587:Middlewares/ST/threadx/common/src/tx_event_flags_set.c ****             if (group_ptr -> tx_event_flags_group_suspended_count != TX_NO_SUSPENSIONS)
 588:Middlewares/ST/threadx/common/src/tx_event_flags_set.c ****             {
 589:Middlewares/ST/threadx/common/src/tx_event_flags_set.c **** 
 590:Middlewares/ST/threadx/common/src/tx_event_flags_set.c ****                 /* We interrupted a search of an event flag group suspension
 591:Middlewares/ST/threadx/common/src/tx_event_flags_set.c ****                    list.  Make sure we reset the search.  */
 592:Middlewares/ST/threadx/common/src/tx_event_flags_set.c ****                 group_ptr -> tx_event_flags_group_reset_search =  TX_TRUE;
 593:Middlewares/ST/threadx/common/src/tx_event_flags_set.c ****             }
 594:Middlewares/ST/threadx/common/src/tx_event_flags_set.c ****         }
 595:Middlewares/ST/threadx/common/src/tx_event_flags_set.c **** 
 596:Middlewares/ST/threadx/common/src/tx_event_flags_set.c ****         /* Restore interrupts.  */
 597:Middlewares/ST/threadx/common/src/tx_event_flags_set.c ****         TX_RESTORE
 598:Middlewares/ST/threadx/common/src/tx_event_flags_set.c **** 
 599:Middlewares/ST/threadx/common/src/tx_event_flags_set.c **** #ifndef TX_DISABLE_NOTIFY_CALLBACKS
 600:Middlewares/ST/threadx/common/src/tx_event_flags_set.c **** 
 601:Middlewares/ST/threadx/common/src/tx_event_flags_set.c ****         /* Determine if a notify callback is required.  */
 602:Middlewares/ST/threadx/common/src/tx_event_flags_set.c ****         if (events_set_notify != TX_NULL)
 603:Middlewares/ST/threadx/common/src/tx_event_flags_set.c ****         {
 604:Middlewares/ST/threadx/common/src/tx_event_flags_set.c **** 
 605:Middlewares/ST/threadx/common/src/tx_event_flags_set.c ****             /* Call application event flags set notification.  */
 606:Middlewares/ST/threadx/common/src/tx_event_flags_set.c ****             (events_set_notify)(group_ptr);
 607:Middlewares/ST/threadx/common/src/tx_event_flags_set.c ****         }
 608:Middlewares/ST/threadx/common/src/tx_event_flags_set.c **** #endif
 609:Middlewares/ST/threadx/common/src/tx_event_flags_set.c **** 
 610:Middlewares/ST/threadx/common/src/tx_event_flags_set.c ****         /* Determine if a check for preemption is necessary.  */
 611:Middlewares/ST/threadx/common/src/tx_event_flags_set.c ****         if (preempt_check == TX_TRUE)
 612:Middlewares/ST/threadx/common/src/tx_event_flags_set.c ****         {
 613:Middlewares/ST/threadx/common/src/tx_event_flags_set.c **** 
 614:Middlewares/ST/threadx/common/src/tx_event_flags_set.c ****             /* Yes, one or more threads were resumed, check for preemption.  */
 615:Middlewares/ST/threadx/common/src/tx_event_flags_set.c ****             _tx_thread_system_preempt_check();
 616:Middlewares/ST/threadx/common/src/tx_event_flags_set.c ****         }
 617:Middlewares/ST/threadx/common/src/tx_event_flags_set.c ****     }
 618:Middlewares/ST/threadx/common/src/tx_event_flags_set.c **** 
 619:Middlewares/ST/threadx/common/src/tx_event_flags_set.c ****     /* Return completion status.  */
 620:Middlewares/ST/threadx/common/src/tx_event_flags_set.c ****     return(TX_SUCCESS);
 154              		.loc 1 620 5 is_stmt 1 view .LVU50
 621:Middlewares/ST/threadx/common/src/tx_event_flags_set.c **** }
 155              		.loc 1 621 1 is_stmt 0 view .LVU51
 156 002e 0020     		movs	r0, #0
 157 0030 03B0     		add	sp, sp, #12
 158              	.LCFI2:
 159              		.cfi_remember_state
 160              		.cfi_def_cfa_offset 36
 161              		@ sp needed
 162 0032 BDE8F08F 		pop	{r4, r5, r6, r7, r8, r9, r10, fp, pc}
ARM GAS  /var/folders/pn/6vkv57yd1x9dxx59v7t3_slc0000gn/T//cc3QrNNe.s 			page 25


 163              	.LVL8:
 164              	.L33:
 165              	.LCFI3:
 166              		.cfi_restore_state
 145:Middlewares/ST/threadx/common/src/tx_event_flags_set.c ****             }
 167              		.loc 1 145 17 is_stmt 1 view .LVU52
 150:Middlewares/ST/threadx/common/src/tx_event_flags_set.c ****         {
 168              		.loc 1 150 9 view .LVU53
 157:Middlewares/ST/threadx/common/src/tx_event_flags_set.c ****                                         group_ptr -> tx_event_flags_group_delayed_clear | ~flags_to
 169              		.loc 1 157 13 view .LVU54
 158:Middlewares/ST/threadx/common/src/tx_event_flags_set.c ****         }
 170              		.loc 1 158 51 is_stmt 0 view .LVU55
 171 0036 026A     		ldr	r2, [r0, #32]
 158:Middlewares/ST/threadx/common/src/tx_event_flags_set.c ****         }
 172              		.loc 1 158 89 view .LVU56
 173 0038 62EA0102 		orn	r2, r2, r1
 157:Middlewares/ST/threadx/common/src/tx_event_flags_set.c ****                                         group_ptr -> tx_event_flags_group_delayed_clear | ~flags_to
 174              		.loc 1 157 61 view .LVU57
 175 003c 0262     		str	r2, [r0, #32]
 176 003e F4E7     		b	.L4
 177              	.LVL9:
 178              	.L2:
 188:Middlewares/ST/threadx/common/src/tx_event_flags_set.c ****             group_ptr -> tx_event_flags_group_current | flags_to_set;
 179              		.loc 1 188 9 is_stmt 1 view .LVU58
 189:Middlewares/ST/threadx/common/src/tx_event_flags_set.c **** 
 180              		.loc 1 189 23 is_stmt 0 view .LVU59
 181 0040 8168     		ldr	r1, [r0, #8]
 182              	.LVL10:
 189:Middlewares/ST/threadx/common/src/tx_event_flags_set.c **** 
 183              		.loc 1 189 55 view .LVU60
 184 0042 1943     		orrs	r1, r1, r3
 188:Middlewares/ST/threadx/common/src/tx_event_flags_set.c ****             group_ptr -> tx_event_flags_group_current | flags_to_set;
 185              		.loc 1 188 51 view .LVU61
 186 0044 8160     		str	r1, [r0, #8]
 194:Middlewares/ST/threadx/common/src/tx_event_flags_set.c ****         {
 187              		.loc 1 194 9 is_stmt 1 view .LVU62
 194:Middlewares/ST/threadx/common/src/tx_event_flags_set.c ****         {
 188              		.loc 1 194 23 is_stmt 0 view .LVU63
 189 0046 026A     		ldr	r2, [r0, #32]
 194:Middlewares/ST/threadx/common/src/tx_event_flags_set.c ****         {
 190              		.loc 1 194 12 view .LVU64
 191 0048 12B1     		cbz	r2, .L6
 198:Middlewares/ST/threadx/common/src/tx_event_flags_set.c ****                                         group_ptr -> tx_event_flags_group_delayed_clear & ~flags_to
 192              		.loc 1 198 13 is_stmt 1 view .LVU65
 199:Middlewares/ST/threadx/common/src/tx_event_flags_set.c ****         }
 193              		.loc 1 199 89 is_stmt 0 view .LVU66
 194 004a 22EA0302 		bic	r2, r2, r3
 198:Middlewares/ST/threadx/common/src/tx_event_flags_set.c ****                                         group_ptr -> tx_event_flags_group_delayed_clear & ~flags_to
 195              		.loc 1 198 61 view .LVU67
 196 004e 0262     		str	r2, [r0, #32]
 197              	.L6:
 204:Middlewares/ST/threadx/common/src/tx_event_flags_set.c **** 
 198              		.loc 1 204 9 is_stmt 1 view .LVU68
 199              	.LVL11:
 207:Middlewares/ST/threadx/common/src/tx_event_flags_set.c **** 
 200              		.loc 1 207 9 view .LVU69
 207:Middlewares/ST/threadx/common/src/tx_event_flags_set.c **** 
ARM GAS  /var/folders/pn/6vkv57yd1x9dxx59v7t3_slc0000gn/T//cc3QrNNe.s 			page 26


 201              		.loc 1 207 25 is_stmt 0 view .LVU70
 202 0050 DCF81420 		ldr	r2, [ip, #20]
 203              	.LVL12:
 210:Middlewares/ST/threadx/common/src/tx_event_flags_set.c ****         {
 204              		.loc 1 210 9 is_stmt 1 view .LVU71
 210:Middlewares/ST/threadx/common/src/tx_event_flags_set.c ****         {
 205              		.loc 1 210 23 is_stmt 0 view .LVU72
 206 0054 DCF81050 		ldr	r5, [ip, #16]
 210:Middlewares/ST/threadx/common/src/tx_event_flags_set.c ****         {
 207              		.loc 1 210 12 view .LVU73
 208 0058 002D     		cmp	r5, #0
 209 005a 00F0D580 		beq	.L7
 215:Middlewares/ST/threadx/common/src/tx_event_flags_set.c ****             {
 210              		.loc 1 215 13 is_stmt 1 view .LVU74
 215:Middlewares/ST/threadx/common/src/tx_event_flags_set.c ****             {
 211              		.loc 1 215 16 is_stmt 0 view .LVU75
 212 005e 012A     		cmp	r2, #1
 213 0060 0BD0     		beq	.L34
 322:Middlewares/ST/threadx/common/src/tx_event_flags_set.c ****                 thread_ptr =      suspended_list;
 214              		.loc 1 322 17 is_stmt 1 view .LVU76
 215              	.LVL13:
 323:Middlewares/ST/threadx/common/src/tx_event_flags_set.c **** 
 216              		.loc 1 323 17 view .LVU77
 327:Middlewares/ST/threadx/common/src/tx_event_flags_set.c **** 
 217              		.loc 1 327 17 view .LVU78
 327:Middlewares/ST/threadx/common/src/tx_event_flags_set.c **** 
 218              		.loc 1 327 67 is_stmt 0 view .LVU79
 219 0062 0020     		movs	r0, #0
 220              	.LVL14:
 327:Middlewares/ST/threadx/common/src/tx_event_flags_set.c **** 
 221              		.loc 1 327 67 view .LVU80
 222 0064 CCF81000 		str	r0, [ip, #16]
 330:Middlewares/ST/threadx/common/src/tx_event_flags_set.c ****                 last_satisfied =  TX_NULL;
 223              		.loc 1 330 17 is_stmt 1 view .LVU81
 224              	.LVL15:
 331:Middlewares/ST/threadx/common/src/tx_event_flags_set.c **** 
 225              		.loc 1 331 17 view .LVU82
 334:Middlewares/ST/threadx/common/src/tx_event_flags_set.c **** 
 226              		.loc 1 334 17 view .LVU83
 337:Middlewares/ST/threadx/common/src/tx_event_flags_set.c **** 
 227              		.loc 1 337 17 view .LVU84
 337:Middlewares/ST/threadx/common/src/tx_event_flags_set.c **** 
 228              		.loc 1 337 43 is_stmt 0 view .LVU85
 229 0068 6C4C     		ldr	r4, .L40
 230 006a 2368     		ldr	r3, [r4]
 231              	.LVL16:
 337:Middlewares/ST/threadx/common/src/tx_event_flags_set.c **** 
 232              		.loc 1 337 43 view .LVU86
 233 006c 0133     		adds	r3, r3, #1
 234 006e 2360     		str	r3, [r4]
 204:Middlewares/ST/threadx/common/src/tx_event_flags_set.c **** 
 235              		.loc 1 204 23 view .LVU87
 236 0070 019B     		ldr	r3, [sp, #4]
 322:Middlewares/ST/threadx/common/src/tx_event_flags_set.c ****                 thread_ptr =      suspended_list;
 237              		.loc 1 322 32 view .LVU88
 238 0072 2E46     		mov	r6, r5
 331:Middlewares/ST/threadx/common/src/tx_event_flags_set.c **** 
ARM GAS  /var/folders/pn/6vkv57yd1x9dxx59v7t3_slc0000gn/T//cc3QrNNe.s 			page 27


 239              		.loc 1 331 32 view .LVU89
 240 0074 0746     		mov	r7, r0
 330:Middlewares/ST/threadx/common/src/tx_event_flags_set.c ****                 last_satisfied =  TX_NULL;
 241              		.loc 1 330 32 view .LVU90
 242 0076 9946     		mov	r9, r3
 243 0078 56E0     		b	.L24
 244              	.LVL17:
 245              	.L34:
 222:Middlewares/ST/threadx/common/src/tx_event_flags_set.c **** 
 246              		.loc 1 222 17 is_stmt 1 view .LVU91
 225:Middlewares/ST/threadx/common/src/tx_event_flags_set.c **** 
 247              		.loc 1 225 17 view .LVU92
 228:Middlewares/ST/threadx/common/src/tx_event_flags_set.c **** 
 248              		.loc 1 228 17 view .LVU93
 228:Middlewares/ST/threadx/common/src/tx_event_flags_set.c **** 
 249              		.loc 1 228 33 is_stmt 0 view .LVU94
 250 007a AB6F     		ldr	r3, [r5, #120]
 251              	.LVL18:
 231:Middlewares/ST/threadx/common/src/tx_event_flags_set.c **** 
 252              		.loc 1 231 17 is_stmt 1 view .LVU95
 231:Middlewares/ST/threadx/common/src/tx_event_flags_set.c **** 
 253              		.loc 1 231 28 is_stmt 0 view .LVU96
 254 007c D5F88020 		ldr	r2, [r5, #128]
 255              	.LVL19:
 234:Middlewares/ST/threadx/common/src/tx_event_flags_set.c **** 
 256              		.loc 1 234 17 is_stmt 1 view .LVU97
 237:Middlewares/ST/threadx/common/src/tx_event_flags_set.c ****                 {
 257              		.loc 1 237 17 view .LVU98
 237:Middlewares/ST/threadx/common/src/tx_event_flags_set.c ****                 {
 258              		.loc 1 237 20 is_stmt 0 view .LVU99
 259 0080 12F0020F 		tst	r2, #2
 260 0084 05D0     		beq	.L9
 243:Middlewares/ST/threadx/common/src/tx_event_flags_set.c **** 
 261              		.loc 1 243 21 is_stmt 1 view .LVU100
 243:Middlewares/ST/threadx/common/src/tx_event_flags_set.c **** 
 262              		.loc 1 243 37 is_stmt 0 view .LVU101
 263 0086 01EA0300 		and	r0, r1, r3
 264              	.LVL20:
 246:Middlewares/ST/threadx/common/src/tx_event_flags_set.c ****                     {
 265              		.loc 1 246 21 is_stmt 1 view .LVU102
 246:Middlewares/ST/threadx/common/src/tx_event_flags_set.c ****                     {
 266              		.loc 1 246 24 is_stmt 0 view .LVU103
 267 008a 33EA0104 		bics	r4, r3, r1
 268 008e 03D1     		bne	.L10
 269 0090 01E0     		b	.L11
 270              	.LVL21:
 271              	.L9:
 257:Middlewares/ST/threadx/common/src/tx_event_flags_set.c ****                 }
 272              		.loc 1 257 21 is_stmt 1 view .LVU104
 257:Middlewares/ST/threadx/common/src/tx_event_flags_set.c ****                 }
 273              		.loc 1 257 37 is_stmt 0 view .LVU105
 274 0092 01EA0300 		and	r0, r1, r3
 275              	.LVL22:
 276              	.L11:
 261:Middlewares/ST/threadx/common/src/tx_event_flags_set.c ****                 {
 277              		.loc 1 261 17 is_stmt 1 view .LVU106
 261:Middlewares/ST/threadx/common/src/tx_event_flags_set.c ****                 {
ARM GAS  /var/folders/pn/6vkv57yd1x9dxx59v7t3_slc0000gn/T//cc3QrNNe.s 			page 28


 278              		.loc 1 261 20 is_stmt 0 view .LVU107
 279 0096 10B9     		cbnz	r0, .L12
 280              	.L10:
 281              	.LVL23:
 597:Middlewares/ST/threadx/common/src/tx_event_flags_set.c **** 
 282              		.loc 1 597 9 is_stmt 1 view .LVU108
 283              	.LBB42:
 284              	.LBI42:
 556:Middlewares/ST/threadx/ports/cortex_m4/gnu/inc/tx_port.h **** {
 285              		.loc 2 556 55 view .LVU109
 286              	.LBB43:
 562:Middlewares/ST/threadx/ports/cortex_m4/gnu/inc/tx_port.h **** #endif
 287              		.loc 2 562 5 view .LVU110
 288              		.syntax unified
 289              	@ 562 "Middlewares/ST/threadx/ports/cortex_m4/gnu/inc/tx_port.h" 1
 290 0098 8EF31088 		MSR  PRIMASK,lr
 291              	@ 0 "" 2
 292              	.LVL24:
 562:Middlewares/ST/threadx/ports/cortex_m4/gnu/inc/tx_port.h **** #endif
 293              		.loc 2 562 5 is_stmt 0 view .LVU111
 294              		.thumb
 295              		.syntax unified
 296              	.LBE43:
 297              	.LBE42:
 611:Middlewares/ST/threadx/common/src/tx_event_flags_set.c ****         {
 298              		.loc 1 611 9 is_stmt 1 view .LVU112
 299 009c C7E7     		b	.L5
 300              	.LVL25:
 301              	.L12:
 268:Middlewares/ST/threadx/common/src/tx_event_flags_set.c **** 
 302              		.loc 1 268 21 view .LVU113
 271:Middlewares/ST/threadx/common/src/tx_event_flags_set.c ****                     *suspend_info_ptr =  current_event_flags;
 303              		.loc 1 271 21 view .LVU114
 271:Middlewares/ST/threadx/common/src/tx_event_flags_set.c ****                     *suspend_info_ptr =  current_event_flags;
 304              		.loc 1 271 38 is_stmt 0 view .LVU115
 305 009e E86F     		ldr	r0, [r5, #124]
 306              	.LVL26:
 272:Middlewares/ST/threadx/common/src/tx_event_flags_set.c **** 
 307              		.loc 1 272 21 is_stmt 1 view .LVU116
 272:Middlewares/ST/threadx/common/src/tx_event_flags_set.c **** 
 308              		.loc 1 272 39 is_stmt 0 view .LVU117
 309 00a0 0160     		str	r1, [r0]
 310              	.LVL27:
 275:Middlewares/ST/threadx/common/src/tx_event_flags_set.c **** 
 311              		.loc 1 275 21 is_stmt 1 view .LVU118
 278:Middlewares/ST/threadx/common/src/tx_event_flags_set.c ****                     {
 312              		.loc 1 278 21 view .LVU119
 278:Middlewares/ST/threadx/common/src/tx_event_flags_set.c ****                     {
 313              		.loc 1 278 24 is_stmt 0 view .LVU120
 314 00a2 12F0010F 		tst	r2, #1
 315 00a6 05D0     		beq	.L13
 282:Middlewares/ST/threadx/common/src/tx_event_flags_set.c ****                     }
 316              		.loc 1 282 25 is_stmt 1 view .LVU121
 282:Middlewares/ST/threadx/common/src/tx_event_flags_set.c ****                     }
 317              		.loc 1 282 80 is_stmt 0 view .LVU122
 318 00a8 DCF80820 		ldr	r2, [ip, #8]
 319              	.LVL28:
ARM GAS  /var/folders/pn/6vkv57yd1x9dxx59v7t3_slc0000gn/T//cc3QrNNe.s 			page 29


 282:Middlewares/ST/threadx/common/src/tx_event_flags_set.c ****                     }
 320              		.loc 1 282 112 view .LVU123
 321 00ac 22EA0302 		bic	r2, r2, r3
 282:Middlewares/ST/threadx/common/src/tx_event_flags_set.c ****                     }
 322              		.loc 1 282 67 view .LVU124
 323 00b0 CCF80820 		str	r2, [ip, #8]
 324              	.L13:
 286:Middlewares/ST/threadx/common/src/tx_event_flags_set.c ****                     group_ptr -> tx_event_flags_group_suspended_count =  TX_NO_SUSPENSIONS;
 325              		.loc 1 286 21 is_stmt 1 view .LVU125
 286:Middlewares/ST/threadx/common/src/tx_event_flags_set.c ****                     group_ptr -> tx_event_flags_group_suspended_count =  TX_NO_SUSPENSIONS;
 326              		.loc 1 286 71 is_stmt 0 view .LVU126
 327 00b4 0023     		movs	r3, #0
 328              	.LVL29:
 286:Middlewares/ST/threadx/common/src/tx_event_flags_set.c ****                     group_ptr -> tx_event_flags_group_suspended_count =  TX_NO_SUSPENSIONS;
 329              		.loc 1 286 71 view .LVU127
 330 00b6 CCF81030 		str	r3, [ip, #16]
 287:Middlewares/ST/threadx/common/src/tx_event_flags_set.c **** 
 331              		.loc 1 287 21 is_stmt 1 view .LVU128
 287:Middlewares/ST/threadx/common/src/tx_event_flags_set.c **** 
 332              		.loc 1 287 71 is_stmt 0 view .LVU129
 333 00ba CCF81430 		str	r3, [ip, #20]
 290:Middlewares/ST/threadx/common/src/tx_event_flags_set.c **** 
 334              		.loc 1 290 21 is_stmt 1 view .LVU130
 290:Middlewares/ST/threadx/common/src/tx_event_flags_set.c **** 
 335              		.loc 1 290 61 is_stmt 0 view .LVU131
 336 00be AB66     		str	r3, [r5, #104]
 293:Middlewares/ST/threadx/common/src/tx_event_flags_set.c **** 
 337              		.loc 1 293 21 is_stmt 1 view .LVU132
 293:Middlewares/ST/threadx/common/src/tx_event_flags_set.c **** 
 338              		.loc 1 293 60 is_stmt 0 view .LVU133
 339 00c0 C5F88430 		str	r3, [r5, #132]
 302:Middlewares/ST/threadx/common/src/tx_event_flags_set.c **** 
 340              		.loc 1 302 21 is_stmt 1 view .LVU134
 302:Middlewares/ST/threadx/common/src/tx_event_flags_set.c **** 
 341              		.loc 1 302 47 is_stmt 0 view .LVU135
 342 00c4 554A     		ldr	r2, .L40
 343 00c6 1368     		ldr	r3, [r2]
 344 00c8 0133     		adds	r3, r3, #1
 345 00ca 1360     		str	r3, [r2]
 305:Middlewares/ST/threadx/common/src/tx_event_flags_set.c **** 
 346              		.loc 1 305 21 is_stmt 1 view .LVU136
 347              	.LVL30:
 348              	.LBB48:
 349              	.LBI48:
 556:Middlewares/ST/threadx/ports/cortex_m4/gnu/inc/tx_port.h **** {
 350              		.loc 2 556 55 view .LVU137
 351              	.LBB49:
 562:Middlewares/ST/threadx/ports/cortex_m4/gnu/inc/tx_port.h **** #endif
 352              		.loc 2 562 5 view .LVU138
 353              		.syntax unified
 354              	@ 562 "Middlewares/ST/threadx/ports/cortex_m4/gnu/inc/tx_port.h" 1
 355 00cc 8EF31088 		MSR  PRIMASK,lr
 356              	@ 0 "" 2
 357              	.LVL31:
 562:Middlewares/ST/threadx/ports/cortex_m4/gnu/inc/tx_port.h **** #endif
 358              		.loc 2 562 5 is_stmt 0 view .LVU139
 359              		.thumb
ARM GAS  /var/folders/pn/6vkv57yd1x9dxx59v7t3_slc0000gn/T//cc3QrNNe.s 			page 30


 360              		.syntax unified
 361              	.LBE49:
 362              	.LBE48:
 308:Middlewares/ST/threadx/common/src/tx_event_flags_set.c **** 
 363              		.loc 1 308 21 is_stmt 1 view .LVU140
 364 00d0 2846     		mov	r0, r5
 365              	.LVL32:
 308:Middlewares/ST/threadx/common/src/tx_event_flags_set.c **** 
 366              		.loc 1 308 21 is_stmt 0 view .LVU141
 367 00d2 FFF7FEFF 		bl	_tx_thread_system_resume
 368              	.LVL33:
 311:Middlewares/ST/threadx/common/src/tx_event_flags_set.c **** #endif
 369              		.loc 1 311 21 is_stmt 1 view .LVU142
 370              	.LBB50:
 371              	.LBI50:
 566:Middlewares/ST/threadx/ports/cortex_m4/gnu/inc/tx_port.h **** {
 372              		.loc 2 566 63 view .LVU143
 373              	.LBB51:
 568:Middlewares/ST/threadx/ports/cortex_m4/gnu/inc/tx_port.h **** 
 374              		.loc 2 568 1 view .LVU144
 570:Middlewares/ST/threadx/ports/cortex_m4/gnu/inc/tx_port.h **** 
 375              		.loc 2 570 5 view .LVU145
 376              	.LBB52:
 377              	.LBI52:
 533:Middlewares/ST/threadx/ports/cortex_m4/gnu/inc/tx_port.h **** {
 378              		.loc 2 533 63 view .LVU146
 379              	.LBB53:
 535:Middlewares/ST/threadx/ports/cortex_m4/gnu/inc/tx_port.h **** #ifdef TX_PORT_USE_BASEPRI
 380              		.loc 2 535 1 view .LVU147
 539:Middlewares/ST/threadx/ports/cortex_m4/gnu/inc/tx_port.h **** #endif
 381              		.loc 2 539 5 view .LVU148
 382              		.syntax unified
 383              	@ 539 "Middlewares/ST/threadx/ports/cortex_m4/gnu/inc/tx_port.h" 1
 384 00d6 EFF31083 		MRS  r3, PRIMASK 
 385              	@ 0 "" 2
 541:Middlewares/ST/threadx/ports/cortex_m4/gnu/inc/tx_port.h **** }
 386              		.loc 2 541 5 view .LVU149
 387              	.LVL34:
 541:Middlewares/ST/threadx/ports/cortex_m4/gnu/inc/tx_port.h **** }
 388              		.loc 2 541 5 is_stmt 0 view .LVU150
 389              		.thumb
 390              		.syntax unified
 391              	.LBE53:
 392              	.LBE52:
 575:Middlewares/ST/threadx/ports/cortex_m4/gnu/inc/tx_port.h **** #endif
 393              		.loc 2 575 5 is_stmt 1 view .LVU151
 394              		.syntax unified
 395              	@ 575 "Middlewares/ST/threadx/ports/cortex_m4/gnu/inc/tx_port.h" 1
 396 00da 72B6     		CPSID i
 397              	@ 0 "" 2
 398              		.loc 2 577 5 view .LVU152
 399              	.LVL35:
 400              		.loc 2 577 5 is_stmt 0 view .LVU153
 401              		.thumb
 402              		.syntax unified
 403              	.LBE51:
 404              	.LBE50:
ARM GAS  /var/folders/pn/6vkv57yd1x9dxx59v7t3_slc0000gn/T//cc3QrNNe.s 			page 31


 597:Middlewares/ST/threadx/common/src/tx_event_flags_set.c **** 
 405              		.loc 1 597 9 is_stmt 1 view .LVU154
 406              	.LBB54:
 556:Middlewares/ST/threadx/ports/cortex_m4/gnu/inc/tx_port.h **** {
 407              		.loc 2 556 55 view .LVU155
 408              	.LBB44:
 562:Middlewares/ST/threadx/ports/cortex_m4/gnu/inc/tx_port.h **** #endif
 409              		.loc 2 562 5 view .LVU156
 410              		.syntax unified
 411              	@ 562 "Middlewares/ST/threadx/ports/cortex_m4/gnu/inc/tx_port.h" 1
 412 00dc 83F31088 		MSR  PRIMASK,r3
 413              	@ 0 "" 2
 414              	.LVL36:
 562:Middlewares/ST/threadx/ports/cortex_m4/gnu/inc/tx_port.h **** #endif
 415              		.loc 2 562 5 is_stmt 0 view .LVU157
 416              		.thumb
 417              		.syntax unified
 418              	.LBE44:
 419              	.LBE54:
 611:Middlewares/ST/threadx/common/src/tx_event_flags_set.c ****         {
 420              		.loc 1 611 9 is_stmt 1 view .LVU158
 421 00e0 8FE0     		b	.L14
 422              	.LVL37:
 423              	.L29:
 611:Middlewares/ST/threadx/common/src/tx_event_flags_set.c ****         {
 424              		.loc 1 611 9 is_stmt 0 view .LVU159
 425 00e2 2B46     		mov	r3, r5
 426 00e4 32E0     		b	.L15
 427              	.LVL38:
 428              	.L16:
 403:Middlewares/ST/threadx/common/src/tx_event_flags_set.c ****                     }
 429              		.loc 1 403 25 is_stmt 1 view .LVU160
 403:Middlewares/ST/threadx/common/src/tx_event_flags_set.c ****                     }
 430              		.loc 1 403 41 is_stmt 0 view .LVU161
 431 00e6 01EA080B 		and	fp, r1, r8
 432              	.LVL39:
 433              	.L17:
 409:Middlewares/ST/threadx/common/src/tx_event_flags_set.c ****                     {
 434              		.loc 1 409 21 is_stmt 1 view .LVU162
 409:Middlewares/ST/threadx/common/src/tx_event_flags_set.c ****                     {
 435              		.loc 1 409 36 is_stmt 0 view .LVU163
 436 00ea 1C6B     		ldr	r4, [r3, #48]
 409:Middlewares/ST/threadx/common/src/tx_event_flags_set.c ****                     {
 437              		.loc 1 409 24 view .LVU164
 438 00ec 072C     		cmp	r4, #7
 439 00ee 3DD0     		beq	.L35
 440              	.L18:
 441              	.LVL40:
 423:Middlewares/ST/threadx/common/src/tx_event_flags_set.c **** 
 442              		.loc 1 423 25 is_stmt 1 view .LVU165
 427:Middlewares/ST/threadx/common/src/tx_event_flags_set.c ****                         {
 443              		.loc 1 427 25 view .LVU166
 427:Middlewares/ST/threadx/common/src/tx_event_flags_set.c ****                         {
 444              		.loc 1 427 28 is_stmt 0 view .LVU167
 445 00f0 072C     		cmp	r4, #7
 446 00f2 3FD0     		beq	.L36
 447              	.L20:
ARM GAS  /var/folders/pn/6vkv57yd1x9dxx59v7t3_slc0000gn/T//cc3QrNNe.s 			page 32


 458:Middlewares/ST/threadx/common/src/tx_event_flags_set.c ****                         {
 448              		.loc 1 458 25 is_stmt 1 view .LVU168
 458:Middlewares/ST/threadx/common/src/tx_event_flags_set.c ****                         {
 449              		.loc 1 458 54 is_stmt 0 view .LVU169
 450 00f4 1C6F     		ldr	r4, [r3, #112]
 458:Middlewares/ST/threadx/common/src/tx_event_flags_set.c ****                         {
 451              		.loc 1 458 28 view .LVU170
 452 00f6 9C42     		cmp	r4, r3
 453 00f8 4ED0     		beq	.L31
 472:Middlewares/ST/threadx/common/src/tx_event_flags_set.c ****                             previous_thread =                              thread_ptr -> tx_thread_
 454              		.loc 1 472 29 is_stmt 1 view .LVU171
 455              	.LVL41:
 473:Middlewares/ST/threadx/common/src/tx_event_flags_set.c ****                             next_thread -> tx_thread_suspended_previous =  previous_thread;
 456              		.loc 1 473 29 view .LVU172
 473:Middlewares/ST/threadx/common/src/tx_event_flags_set.c ****                             next_thread -> tx_thread_suspended_previous =  previous_thread;
 457              		.loc 1 473 45 is_stmt 0 view .LVU173
 458 00fa D3F87480 		ldr	r8, [r3, #116]
 459              	.LVL42:
 474:Middlewares/ST/threadx/common/src/tx_event_flags_set.c ****                             previous_thread -> tx_thread_suspended_next =  next_thread;
 460              		.loc 1 474 29 is_stmt 1 view .LVU174
 474:Middlewares/ST/threadx/common/src/tx_event_flags_set.c ****                             previous_thread -> tx_thread_suspended_next =  next_thread;
 461              		.loc 1 474 73 is_stmt 0 view .LVU175
 462 00fe C4F87480 		str	r8, [r4, #116]
 475:Middlewares/ST/threadx/common/src/tx_event_flags_set.c **** 
 463              		.loc 1 475 29 is_stmt 1 view .LVU176
 475:Middlewares/ST/threadx/common/src/tx_event_flags_set.c **** 
 464              		.loc 1 475 73 is_stmt 0 view .LVU177
 465 0102 C8F87040 		str	r4, [r8, #112]
 479:Middlewares/ST/threadx/common/src/tx_event_flags_set.c ****                             {
 466              		.loc 1 479 29 is_stmt 1 view .LVU178
 479:Middlewares/ST/threadx/common/src/tx_event_flags_set.c ****                             {
 467              		.loc 1 479 32 is_stmt 0 view .LVU179
 468 0106 B342     		cmp	r3, r6
 469 0108 44D0     		beq	.L37
 470              	.LVL43:
 471              	.L22:
 488:Middlewares/ST/threadx/common/src/tx_event_flags_set.c **** 
 472              		.loc 1 488 25 is_stmt 1 view .LVU180
 488:Middlewares/ST/threadx/common/src/tx_event_flags_set.c **** 
 473              		.loc 1 488 35 is_stmt 0 view .LVU181
 474 010a DCF81440 		ldr	r4, [ip, #20]
 488:Middlewares/ST/threadx/common/src/tx_event_flags_set.c **** 
 475              		.loc 1 488 74 view .LVU182
 476 010e 013C     		subs	r4, r4, #1
 477 0110 CCF81440 		str	r4, [ip, #20]
 491:Middlewares/ST/threadx/common/src/tx_event_flags_set.c ****                         {
 478              		.loc 1 491 25 is_stmt 1 view .LVU183
 491:Middlewares/ST/threadx/common/src/tx_event_flags_set.c ****                         {
 479              		.loc 1 491 28 is_stmt 0 view .LVU184
 480 0114 0028     		cmp	r0, #0
 481 0116 41D0     		beq	.L38
 507:Middlewares/ST/threadx/common/src/tx_event_flags_set.c ****                             thread_ptr -> tx_thread_suspended_next =      TX_NULL;
 482              		.loc 1 507 29 is_stmt 1 view .LVU185
 507:Middlewares/ST/threadx/common/src/tx_event_flags_set.c ****                             thread_ptr -> tx_thread_suspended_next =      TX_NULL;
 483              		.loc 1 507 72 is_stmt 0 view .LVU186
 484 0118 3B67     		str	r3, [r7, #112]
 508:Middlewares/ST/threadx/common/src/tx_event_flags_set.c ****                             last_satisfied =                              thread_ptr;
ARM GAS  /var/folders/pn/6vkv57yd1x9dxx59v7t3_slc0000gn/T//cc3QrNNe.s 			page 33


 485              		.loc 1 508 29 is_stmt 1 view .LVU187
 508:Middlewares/ST/threadx/common/src/tx_event_flags_set.c ****                             last_satisfied =                              thread_ptr;
 486              		.loc 1 508 68 is_stmt 0 view .LVU188
 487 011a 0024     		movs	r4, #0
 488 011c 1C67     		str	r4, [r3, #112]
 509:Middlewares/ST/threadx/common/src/tx_event_flags_set.c ****                         }
 489              		.loc 1 509 29 is_stmt 1 view .LVU189
 490              	.LVL44:
 509:Middlewares/ST/threadx/common/src/tx_event_flags_set.c ****                         }
 491              		.loc 1 509 44 is_stmt 0 view .LVU190
 492 011e 1F46     		mov	r7, r3
 423:Middlewares/ST/threadx/common/src/tx_event_flags_set.c **** 
 493              		.loc 1 423 39 view .LVU191
 494 0120 4FF00109 		mov	r9, #1
 495              	.LVL45:
 496              	.L19:
 514:Middlewares/ST/threadx/common/src/tx_event_flags_set.c **** 
 497              		.loc 1 514 21 is_stmt 1 view .LVU192
 517:Middlewares/ST/threadx/common/src/tx_event_flags_set.c **** 
 498              		.loc 1 517 21 view .LVU193
 519:Middlewares/ST/threadx/common/src/tx_event_flags_set.c **** 
 499              		.loc 1 519 42 view .LVU194
 500 0124 013A     		subs	r2, r2, #1
 501              	.LVL46:
 519:Middlewares/ST/threadx/common/src/tx_event_flags_set.c **** 
 502              		.loc 1 519 42 is_stmt 0 view .LVU195
 503 0126 3FD0     		beq	.L39
 504              	.LVL47:
 505              	.L24:
 340:Middlewares/ST/threadx/common/src/tx_event_flags_set.c ****                 {
 506              		.loc 1 340 17 is_stmt 1 view .LVU196
 346:Middlewares/ST/threadx/common/src/tx_event_flags_set.c **** 
 507              		.loc 1 346 21 view .LVU197
 508              	.LBB55:
 509              	.LBI55:
 556:Middlewares/ST/threadx/ports/cortex_m4/gnu/inc/tx_port.h **** {
 510              		.loc 2 556 55 view .LVU198
 511              	.LBB56:
 562:Middlewares/ST/threadx/ports/cortex_m4/gnu/inc/tx_port.h **** #endif
 512              		.loc 2 562 5 view .LVU199
 513              		.syntax unified
 514              	@ 562 "Middlewares/ST/threadx/ports/cortex_m4/gnu/inc/tx_port.h" 1
 515 0128 8EF31088 		MSR  PRIMASK,lr
 516              	@ 0 "" 2
 517              	.LVL48:
 562:Middlewares/ST/threadx/ports/cortex_m4/gnu/inc/tx_port.h **** #endif
 518              		.loc 2 562 5 is_stmt 0 view .LVU200
 519              		.thumb
 520              		.syntax unified
 521              	.LBE56:
 522              	.LBE55:
 349:Middlewares/ST/threadx/common/src/tx_event_flags_set.c **** #endif
 523              		.loc 1 349 21 is_stmt 1 view .LVU201
 524              	.LBB57:
 525              	.LBI57:
 566:Middlewares/ST/threadx/ports/cortex_m4/gnu/inc/tx_port.h **** {
 526              		.loc 2 566 63 view .LVU202
ARM GAS  /var/folders/pn/6vkv57yd1x9dxx59v7t3_slc0000gn/T//cc3QrNNe.s 			page 34


 527              	.LBB58:
 568:Middlewares/ST/threadx/ports/cortex_m4/gnu/inc/tx_port.h **** 
 528              		.loc 2 568 1 view .LVU203
 570:Middlewares/ST/threadx/ports/cortex_m4/gnu/inc/tx_port.h **** 
 529              		.loc 2 570 5 view .LVU204
 530              	.LBB59:
 531              	.LBI59:
 533:Middlewares/ST/threadx/ports/cortex_m4/gnu/inc/tx_port.h **** {
 532              		.loc 2 533 63 view .LVU205
 533              	.LBB60:
 535:Middlewares/ST/threadx/ports/cortex_m4/gnu/inc/tx_port.h **** #ifdef TX_PORT_USE_BASEPRI
 534              		.loc 2 535 1 view .LVU206
 539:Middlewares/ST/threadx/ports/cortex_m4/gnu/inc/tx_port.h **** #endif
 535              		.loc 2 539 5 view .LVU207
 536              		.syntax unified
 537              	@ 539 "Middlewares/ST/threadx/ports/cortex_m4/gnu/inc/tx_port.h" 1
 538 012c EFF3108E 		MRS  lr, PRIMASK 
 539              	@ 0 "" 2
 540              	.LVL49:
 541:Middlewares/ST/threadx/ports/cortex_m4/gnu/inc/tx_port.h **** }
 541              		.loc 2 541 5 view .LVU208
 541:Middlewares/ST/threadx/ports/cortex_m4/gnu/inc/tx_port.h **** }
 542              		.loc 2 541 5 is_stmt 0 view .LVU209
 543              		.thumb
 544              		.syntax unified
 545              	.LBE60:
 546              	.LBE59:
 575:Middlewares/ST/threadx/ports/cortex_m4/gnu/inc/tx_port.h **** #endif
 547              		.loc 2 575 5 is_stmt 1 view .LVU210
 548              		.syntax unified
 549              	@ 575 "Middlewares/ST/threadx/ports/cortex_m4/gnu/inc/tx_port.h" 1
 550 0130 72B6     		CPSID i
 551              	@ 0 "" 2
 552              		.loc 2 577 5 view .LVU211
 553              	.LVL50:
 554              		.loc 2 577 5 is_stmt 0 view .LVU212
 555              		.thumb
 556              		.syntax unified
 557              	.LBE58:
 558              	.LBE57:
 353:Middlewares/ST/threadx/common/src/tx_event_flags_set.c ****                     {
 559              		.loc 1 353 21 is_stmt 1 view .LVU213
 353:Middlewares/ST/threadx/common/src/tx_event_flags_set.c ****                     {
 560              		.loc 1 353 35 is_stmt 0 view .LVU214
 561 0132 DCF80C30 		ldr	r3, [ip, #12]
 353:Middlewares/ST/threadx/common/src/tx_event_flags_set.c ****                     {
 562              		.loc 1 353 24 view .LVU215
 563 0136 002B     		cmp	r3, #0
 564 0138 D3D0     		beq	.L29
 357:Middlewares/ST/threadx/common/src/tx_event_flags_set.c **** 
 565              		.loc 1 357 25 is_stmt 1 view .LVU216
 357:Middlewares/ST/threadx/common/src/tx_event_flags_set.c **** 
 566              		.loc 1 357 72 is_stmt 0 view .LVU217
 567 013a 0023     		movs	r3, #0
 568 013c CCF80C30 		str	r3, [ip, #12]
 360:Middlewares/ST/threadx/common/src/tx_event_flags_set.c **** 
 569              		.loc 1 360 25 is_stmt 1 view .LVU218
ARM GAS  /var/folders/pn/6vkv57yd1x9dxx59v7t3_slc0000gn/T//cc3QrNNe.s 			page 35


 570              	.LVL51:
 363:Middlewares/ST/threadx/common/src/tx_event_flags_set.c **** 
 571              		.loc 1 363 25 view .LVU219
 363:Middlewares/ST/threadx/common/src/tx_event_flags_set.c **** 
 572              		.loc 1 363 41 is_stmt 0 view .LVU220
 573 0140 DCF81420 		ldr	r2, [ip, #20]
 574              	.LVL52:
 367:Middlewares/ST/threadx/common/src/tx_event_flags_set.c ****                     }
 575              		.loc 1 367 25 is_stmt 1 view .LVU221
 367:Middlewares/ST/threadx/common/src/tx_event_flags_set.c ****                     }
 576              		.loc 1 367 80 is_stmt 0 view .LVU222
 577 0144 DCF80830 		ldr	r3, [ip, #8]
 367:Middlewares/ST/threadx/common/src/tx_event_flags_set.c ****                     }
 578              		.loc 1 367 45 view .LVU223
 579 0148 1943     		orrs	r1, r1, r3
 580              	.LVL53:
 360:Middlewares/ST/threadx/common/src/tx_event_flags_set.c **** 
 581              		.loc 1 360 36 view .LVU224
 582 014a 3346     		mov	r3, r6
 583              	.LVL54:
 584              	.L15:
 371:Middlewares/ST/threadx/common/src/tx_event_flags_set.c **** 
 585              		.loc 1 371 21 is_stmt 1 view .LVU225
 371:Middlewares/ST/threadx/common/src/tx_event_flags_set.c **** 
 586              		.loc 1 371 37 is_stmt 0 view .LVU226
 587 014c 1D6F     		ldr	r5, [r3, #112]
 588              	.LVL55:
 374:Middlewares/ST/threadx/common/src/tx_event_flags_set.c **** 
 589              		.loc 1 374 21 is_stmt 1 view .LVU227
 374:Middlewares/ST/threadx/common/src/tx_event_flags_set.c **** 
 590              		.loc 1 374 37 is_stmt 0 view .LVU228
 591 014e D3F87880 		ldr	r8, [r3, #120]
 592              	.LVL56:
 377:Middlewares/ST/threadx/common/src/tx_event_flags_set.c **** 
 593              		.loc 1 377 21 is_stmt 1 view .LVU229
 377:Middlewares/ST/threadx/common/src/tx_event_flags_set.c **** 
 594              		.loc 1 377 32 is_stmt 0 view .LVU230
 595 0152 D3F880A0 		ldr	r10, [r3, #128]
 596              	.LVL57:
 380:Middlewares/ST/threadx/common/src/tx_event_flags_set.c **** 
 597              		.loc 1 380 21 is_stmt 1 view .LVU231
 383:Middlewares/ST/threadx/common/src/tx_event_flags_set.c ****                     {
 598              		.loc 1 383 21 view .LVU232
 383:Middlewares/ST/threadx/common/src/tx_event_flags_set.c ****                     {
 599              		.loc 1 383 24 is_stmt 0 view .LVU233
 600 0156 1AF0020F 		tst	r10, #2
 601 015a C4D0     		beq	.L16
 389:Middlewares/ST/threadx/common/src/tx_event_flags_set.c **** 
 602              		.loc 1 389 25 is_stmt 1 view .LVU234
 389:Middlewares/ST/threadx/common/src/tx_event_flags_set.c **** 
 603              		.loc 1 389 41 is_stmt 0 view .LVU235
 604 015c 01EA080B 		and	fp, r1, r8
 605              	.LVL58:
 392:Middlewares/ST/threadx/common/src/tx_event_flags_set.c ****                         {
 606              		.loc 1 392 25 is_stmt 1 view .LVU236
 392:Middlewares/ST/threadx/common/src/tx_event_flags_set.c ****                         {
 607              		.loc 1 392 28 is_stmt 0 view .LVU237
ARM GAS  /var/folders/pn/6vkv57yd1x9dxx59v7t3_slc0000gn/T//cc3QrNNe.s 			page 36


 608 0160 38EA0104 		bics	r4, r8, r1
 609 0164 C1D0     		beq	.L17
 396:Middlewares/ST/threadx/common/src/tx_event_flags_set.c ****                         }
 610              		.loc 1 396 45 view .LVU238
 611 0166 DDF804B0 		ldr	fp, [sp, #4]
 612              	.LVL59:
 396:Middlewares/ST/threadx/common/src/tx_event_flags_set.c ****                         }
 613              		.loc 1 396 45 view .LVU239
 614 016a BEE7     		b	.L17
 615              	.LVL60:
 616              	.L35:
 417:Middlewares/ST/threadx/common/src/tx_event_flags_set.c ****                     {
 617              		.loc 1 417 21 is_stmt 1 view .LVU240
 417:Middlewares/ST/threadx/common/src/tx_event_flags_set.c ****                     {
 618              		.loc 1 417 24 is_stmt 0 view .LVU241
 619 016c BBF1000F 		cmp	fp, #0
 620 0170 D8D0     		beq	.L19
 621 0172 BDE7     		b	.L18
 622              	.LVL61:
 623              	.L36:
 431:Middlewares/ST/threadx/common/src/tx_event_flags_set.c ****                             *suspend_info_ptr =  current_event_flags;
 624              		.loc 1 431 29 is_stmt 1 view .LVU242
 431:Middlewares/ST/threadx/common/src/tx_event_flags_set.c ****                             *suspend_info_ptr =  current_event_flags;
 625              		.loc 1 431 46 is_stmt 0 view .LVU243
 626 0174 DC6F     		ldr	r4, [r3, #124]
 627              	.LVL62:
 432:Middlewares/ST/threadx/common/src/tx_event_flags_set.c **** 
 628              		.loc 1 432 29 is_stmt 1 view .LVU244
 432:Middlewares/ST/threadx/common/src/tx_event_flags_set.c **** 
 629              		.loc 1 432 47 is_stmt 0 view .LVU245
 630 0176 2160     		str	r1, [r4]
 435:Middlewares/ST/threadx/common/src/tx_event_flags_set.c **** 
 631              		.loc 1 435 29 is_stmt 1 view .LVU246
 632              	.LVL63:
 438:Middlewares/ST/threadx/common/src/tx_event_flags_set.c ****                             {
 633              		.loc 1 438 29 view .LVU247
 438:Middlewares/ST/threadx/common/src/tx_event_flags_set.c ****                             {
 634              		.loc 1 438 32 is_stmt 0 view .LVU248
 635 0178 1AF0010F 		tst	r10, #1
 636 017c 05D0     		beq	.L21
 442:Middlewares/ST/threadx/common/src/tx_event_flags_set.c ****                             }
 637              		.loc 1 442 33 is_stmt 1 view .LVU249
 442:Middlewares/ST/threadx/common/src/tx_event_flags_set.c ****                             }
 638              		.loc 1 442 88 is_stmt 0 view .LVU250
 639 017e DCF80840 		ldr	r4, [ip, #8]
 640              	.LVL64:
 442:Middlewares/ST/threadx/common/src/tx_event_flags_set.c ****                             }
 641              		.loc 1 442 120 view .LVU251
 642 0182 24EA0804 		bic	r4, r4, r8
 442:Middlewares/ST/threadx/common/src/tx_event_flags_set.c ****                             }
 643              		.loc 1 442 75 view .LVU252
 644 0186 CCF80840 		str	r4, [ip, #8]
 645              	.L21:
 448:Middlewares/ST/threadx/common/src/tx_event_flags_set.c **** 
 646              		.loc 1 448 29 is_stmt 1 view .LVU253
 448:Middlewares/ST/threadx/common/src/tx_event_flags_set.c **** 
 647              		.loc 1 448 69 is_stmt 0 view .LVU254
ARM GAS  /var/folders/pn/6vkv57yd1x9dxx59v7t3_slc0000gn/T//cc3QrNNe.s 			page 37


 648 018a 0024     		movs	r4, #0
 649 018c 9C66     		str	r4, [r3, #104]
 451:Middlewares/ST/threadx/common/src/tx_event_flags_set.c ****                         }
 650              		.loc 1 451 29 is_stmt 1 view .LVU255
 451:Middlewares/ST/threadx/common/src/tx_event_flags_set.c ****                         }
 651              		.loc 1 451 68 is_stmt 0 view .LVU256
 652 018e C3F88440 		str	r4, [r3, #132]
 653 0192 AFE7     		b	.L20
 654              	.LVL65:
 655              	.L37:
 483:Middlewares/ST/threadx/common/src/tx_event_flags_set.c ****                             }
 656              		.loc 1 483 33 is_stmt 1 view .LVU257
 483:Middlewares/ST/threadx/common/src/tx_event_flags_set.c ****                             }
 657              		.loc 1 483 48 is_stmt 0 view .LVU258
 658 0194 1E6F     		ldr	r6, [r3, #112]
 659              	.LVL66:
 483:Middlewares/ST/threadx/common/src/tx_event_flags_set.c ****                             }
 660              		.loc 1 483 48 view .LVU259
 661 0196 B8E7     		b	.L22
 662              	.LVL67:
 663              	.L31:
 464:Middlewares/ST/threadx/common/src/tx_event_flags_set.c ****                         }
 664              		.loc 1 464 44 view .LVU260
 665 0198 0026     		movs	r6, #0
 666              	.LVL68:
 464:Middlewares/ST/threadx/common/src/tx_event_flags_set.c ****                         }
 667              		.loc 1 464 44 view .LVU261
 668 019a B6E7     		b	.L22
 669              	.LVL69:
 670              	.L38:
 495:Middlewares/ST/threadx/common/src/tx_event_flags_set.c ****                             last_satisfied =  thread_ptr;
 671              		.loc 1 495 29 is_stmt 1 view .LVU262
 496:Middlewares/ST/threadx/common/src/tx_event_flags_set.c **** 
 672              		.loc 1 496 29 view .LVU263
 499:Middlewares/ST/threadx/common/src/tx_event_flags_set.c ****                         }
 673              		.loc 1 499 29 view .LVU264
 499:Middlewares/ST/threadx/common/src/tx_event_flags_set.c ****                         }
 674              		.loc 1 499 68 is_stmt 0 view .LVU265
 675 019c 1867     		str	r0, [r3, #112]
 496:Middlewares/ST/threadx/common/src/tx_event_flags_set.c **** 
 676              		.loc 1 496 44 view .LVU266
 677 019e 1F46     		mov	r7, r3
 495:Middlewares/ST/threadx/common/src/tx_event_flags_set.c ****                             last_satisfied =  thread_ptr;
 678              		.loc 1 495 44 view .LVU267
 679 01a0 1846     		mov	r0, r3
 423:Middlewares/ST/threadx/common/src/tx_event_flags_set.c **** 
 680              		.loc 1 423 39 view .LVU268
 681 01a2 4FF00109 		mov	r9, #1
 682 01a6 BDE7     		b	.L19
 683              	.LVL70:
 684              	.L39:
 522:Middlewares/ST/threadx/common/src/tx_event_flags_set.c **** 
 685              		.loc 1 522 67 view .LVU269
 686 01a8 4D46     		mov	r5, r9
 687              	.LVL71:
 522:Middlewares/ST/threadx/common/src/tx_event_flags_set.c **** 
 688              		.loc 1 522 17 is_stmt 1 view .LVU270
ARM GAS  /var/folders/pn/6vkv57yd1x9dxx59v7t3_slc0000gn/T//cc3QrNNe.s 			page 38


 522:Middlewares/ST/threadx/common/src/tx_event_flags_set.c **** 
 689              		.loc 1 522 67 is_stmt 0 view .LVU271
 690 01aa CCF81060 		str	r6, [ip, #16]
 527:Middlewares/ST/threadx/common/src/tx_event_flags_set.c ****                 {
 691              		.loc 1 527 17 is_stmt 1 view .LVU272
 527:Middlewares/ST/threadx/common/src/tx_event_flags_set.c ****                 {
 692              		.loc 1 527 31 is_stmt 0 view .LVU273
 693 01ae DCF82030 		ldr	r3, [ip, #32]
 527:Middlewares/ST/threadx/common/src/tx_event_flags_set.c ****                 {
 694              		.loc 1 527 20 view .LVU274
 695 01b2 43B1     		cbz	r3, .L25
 696              	.LVL72:
 531:Middlewares/ST/threadx/common/src/tx_event_flags_set.c ****                         group_ptr -> tx_event_flags_group_current & ~(group_ptr -> tx_event_flags_g
 697              		.loc 1 531 21 is_stmt 1 view .LVU275
 532:Middlewares/ST/threadx/common/src/tx_event_flags_set.c **** 
 698              		.loc 1 532 35 is_stmt 0 view .LVU276
 699 01b4 DCF80820 		ldr	r2, [ip, #8]
 700              	.LVL73:
 532:Middlewares/ST/threadx/common/src/tx_event_flags_set.c **** 
 701              		.loc 1 532 67 view .LVU277
 702 01b8 22EA0302 		bic	r2, r2, r3
 531:Middlewares/ST/threadx/common/src/tx_event_flags_set.c ****                         group_ptr -> tx_event_flags_group_current & ~(group_ptr -> tx_event_flags_g
 703              		.loc 1 531 63 view .LVU278
 704 01bc CCF80820 		str	r2, [ip, #8]
 535:Middlewares/ST/threadx/common/src/tx_event_flags_set.c ****                 }
 705              		.loc 1 535 21 is_stmt 1 view .LVU279
 535:Middlewares/ST/threadx/common/src/tx_event_flags_set.c ****                 }
 706              		.loc 1 535 69 is_stmt 0 view .LVU280
 707 01c0 0023     		movs	r3, #0
 708 01c2 CCF82030 		str	r3, [ip, #32]
 709              	.L25:
 540:Middlewares/ST/threadx/common/src/tx_event_flags_set.c **** 
 710              		.loc 1 540 17 is_stmt 1 view .LVU281
 711              	.LVL74:
 712              	.LBB61:
 713              	.LBI61:
 556:Middlewares/ST/threadx/ports/cortex_m4/gnu/inc/tx_port.h **** {
 714              		.loc 2 556 55 view .LVU282
 715              	.LBB62:
 562:Middlewares/ST/threadx/ports/cortex_m4/gnu/inc/tx_port.h **** #endif
 716              		.loc 2 562 5 view .LVU283
 717              		.syntax unified
 718              	@ 562 "Middlewares/ST/threadx/ports/cortex_m4/gnu/inc/tx_port.h" 1
 719 01c6 8EF31088 		MSR  PRIMASK,lr
 720              	@ 0 "" 2
 721              	.LVL75:
 562:Middlewares/ST/threadx/ports/cortex_m4/gnu/inc/tx_port.h **** #endif
 722              		.loc 2 562 5 is_stmt 0 view .LVU284
 723              		.thumb
 724              		.syntax unified
 725              	.LBE62:
 726              	.LBE61:
 543:Middlewares/ST/threadx/common/src/tx_event_flags_set.c ****                 while(thread_ptr != TX_NULL)
 727              		.loc 1 543 17 is_stmt 1 view .LVU285
 544:Middlewares/ST/threadx/common/src/tx_event_flags_set.c ****                 {
 728              		.loc 1 544 17 view .LVU286
 544:Middlewares/ST/threadx/common/src/tx_event_flags_set.c ****                 {
ARM GAS  /var/folders/pn/6vkv57yd1x9dxx59v7t3_slc0000gn/T//cc3QrNNe.s 			page 39


 729              		.loc 1 544 22 is_stmt 0 view .LVU287
 730 01ca 0CE0     		b	.L26
 731              	.LVL76:
 732              	.L27:
 548:Middlewares/ST/threadx/common/src/tx_event_flags_set.c **** 
 733              		.loc 1 548 21 is_stmt 1 view .LVU288
 548:Middlewares/ST/threadx/common/src/tx_event_flags_set.c **** 
 734              		.loc 1 548 37 is_stmt 0 view .LVU289
 735 01cc 046F     		ldr	r4, [r0, #112]
 736              	.LVL77:
 551:Middlewares/ST/threadx/common/src/tx_event_flags_set.c **** 
 737              		.loc 1 551 21 is_stmt 1 view .LVU290
 738              	.LBB63:
 739              	.LBI63:
 566:Middlewares/ST/threadx/ports/cortex_m4/gnu/inc/tx_port.h **** {
 740              		.loc 2 566 63 view .LVU291
 741              	.LBB64:
 568:Middlewares/ST/threadx/ports/cortex_m4/gnu/inc/tx_port.h **** 
 742              		.loc 2 568 1 view .LVU292
 570:Middlewares/ST/threadx/ports/cortex_m4/gnu/inc/tx_port.h **** 
 743              		.loc 2 570 5 view .LVU293
 744              	.LBB65:
 745              	.LBI65:
 533:Middlewares/ST/threadx/ports/cortex_m4/gnu/inc/tx_port.h **** {
 746              		.loc 2 533 63 view .LVU294
 747              	.LBB66:
 535:Middlewares/ST/threadx/ports/cortex_m4/gnu/inc/tx_port.h **** #ifdef TX_PORT_USE_BASEPRI
 748              		.loc 2 535 1 view .LVU295
 539:Middlewares/ST/threadx/ports/cortex_m4/gnu/inc/tx_port.h **** #endif
 749              		.loc 2 539 5 view .LVU296
 750              		.syntax unified
 751              	@ 539 "Middlewares/ST/threadx/ports/cortex_m4/gnu/inc/tx_port.h" 1
 752 01ce EFF31081 		MRS  r1, PRIMASK 
 753              	@ 0 "" 2
 541:Middlewares/ST/threadx/ports/cortex_m4/gnu/inc/tx_port.h **** }
 754              		.loc 2 541 5 view .LVU297
 755              	.LVL78:
 541:Middlewares/ST/threadx/ports/cortex_m4/gnu/inc/tx_port.h **** }
 756              		.loc 2 541 5 is_stmt 0 view .LVU298
 757              		.thumb
 758              		.syntax unified
 759              	.LBE66:
 760              	.LBE65:
 575:Middlewares/ST/threadx/ports/cortex_m4/gnu/inc/tx_port.h **** #endif
 761              		.loc 2 575 5 is_stmt 1 view .LVU299
 762              		.syntax unified
 763              	@ 575 "Middlewares/ST/threadx/ports/cortex_m4/gnu/inc/tx_port.h" 1
 764 01d2 72B6     		CPSID i
 765              	@ 0 "" 2
 766              		.loc 2 577 5 view .LVU300
 767              	.LVL79:
 768              		.loc 2 577 5 is_stmt 0 view .LVU301
 769              		.thumb
 770              		.syntax unified
 771              	.LBE64:
 772              	.LBE63:
 563:Middlewares/ST/threadx/common/src/tx_event_flags_set.c **** 
ARM GAS  /var/folders/pn/6vkv57yd1x9dxx59v7t3_slc0000gn/T//cc3QrNNe.s 			page 40


 773              		.loc 1 563 21 is_stmt 1 view .LVU302
 563:Middlewares/ST/threadx/common/src/tx_event_flags_set.c **** 
 774              		.loc 1 563 47 is_stmt 0 view .LVU303
 775 01d4 114A     		ldr	r2, .L40
 776 01d6 1368     		ldr	r3, [r2]
 777 01d8 0133     		adds	r3, r3, #1
 778 01da 1360     		str	r3, [r2]
 566:Middlewares/ST/threadx/common/src/tx_event_flags_set.c **** 
 779              		.loc 1 566 21 is_stmt 1 view .LVU304
 780              	.LVL80:
 781              	.LBB67:
 782              	.LBI67:
 556:Middlewares/ST/threadx/ports/cortex_m4/gnu/inc/tx_port.h **** {
 783              		.loc 2 556 55 view .LVU305
 784              	.LBB68:
 562:Middlewares/ST/threadx/ports/cortex_m4/gnu/inc/tx_port.h **** #endif
 785              		.loc 2 562 5 view .LVU306
 786              		.syntax unified
 787              	@ 562 "Middlewares/ST/threadx/ports/cortex_m4/gnu/inc/tx_port.h" 1
 788 01dc 81F31088 		MSR  PRIMASK,r1
 789              	@ 0 "" 2
 790              	.LVL81:
 562:Middlewares/ST/threadx/ports/cortex_m4/gnu/inc/tx_port.h **** #endif
 791              		.loc 2 562 5 is_stmt 0 view .LVU307
 792              		.thumb
 793              		.syntax unified
 794              	.LBE68:
 795              	.LBE67:
 569:Middlewares/ST/threadx/common/src/tx_event_flags_set.c **** #endif
 796              		.loc 1 569 21 is_stmt 1 view .LVU308
 797 01e0 FFF7FEFF 		bl	_tx_thread_system_resume
 798              	.LVL82:
 573:Middlewares/ST/threadx/common/src/tx_event_flags_set.c ****                 }
 799              		.loc 1 573 21 view .LVU309
 573:Middlewares/ST/threadx/common/src/tx_event_flags_set.c ****                 }
 800              		.loc 1 573 32 is_stmt 0 view .LVU310
 801 01e4 2046     		mov	r0, r4
 802              	.LVL83:
 803              	.L26:
 544:Middlewares/ST/threadx/common/src/tx_event_flags_set.c ****                 {
 804              		.loc 1 544 34 is_stmt 1 view .LVU311
 805 01e6 0028     		cmp	r0, #0
 806 01e8 F0D1     		bne	.L27
 577:Middlewares/ST/threadx/common/src/tx_event_flags_set.c **** 
 807              		.loc 1 577 17 view .LVU312
 808              	.LBB69:
 809              	.LBI69:
 566:Middlewares/ST/threadx/ports/cortex_m4/gnu/inc/tx_port.h **** {
 810              		.loc 2 566 63 view .LVU313
 811              	.LBB70:
 568:Middlewares/ST/threadx/ports/cortex_m4/gnu/inc/tx_port.h **** 
 812              		.loc 2 568 1 view .LVU314
 570:Middlewares/ST/threadx/ports/cortex_m4/gnu/inc/tx_port.h **** 
 813              		.loc 2 570 5 view .LVU315
 814              	.LBB71:
 815              	.LBI71:
 533:Middlewares/ST/threadx/ports/cortex_m4/gnu/inc/tx_port.h **** {
ARM GAS  /var/folders/pn/6vkv57yd1x9dxx59v7t3_slc0000gn/T//cc3QrNNe.s 			page 41


 816              		.loc 2 533 63 view .LVU316
 817              	.LBB72:
 535:Middlewares/ST/threadx/ports/cortex_m4/gnu/inc/tx_port.h **** #ifdef TX_PORT_USE_BASEPRI
 818              		.loc 2 535 1 view .LVU317
 539:Middlewares/ST/threadx/ports/cortex_m4/gnu/inc/tx_port.h **** #endif
 819              		.loc 2 539 5 view .LVU318
 820              		.syntax unified
 821              	@ 539 "Middlewares/ST/threadx/ports/cortex_m4/gnu/inc/tx_port.h" 1
 822 01ea EFF31081 		MRS  r1, PRIMASK 
 823              	@ 0 "" 2
 541:Middlewares/ST/threadx/ports/cortex_m4/gnu/inc/tx_port.h **** }
 824              		.loc 2 541 5 view .LVU319
 825              	.LVL84:
 541:Middlewares/ST/threadx/ports/cortex_m4/gnu/inc/tx_port.h **** }
 826              		.loc 2 541 5 is_stmt 0 view .LVU320
 827              		.thumb
 828              		.syntax unified
 829              	.LBE72:
 830              	.LBE71:
 575:Middlewares/ST/threadx/ports/cortex_m4/gnu/inc/tx_port.h **** #endif
 831              		.loc 2 575 5 is_stmt 1 view .LVU321
 832              		.syntax unified
 833              	@ 575 "Middlewares/ST/threadx/ports/cortex_m4/gnu/inc/tx_port.h" 1
 834 01ee 72B6     		CPSID i
 835              	@ 0 "" 2
 836              		.loc 2 577 5 view .LVU322
 837              	.LVL85:
 838              		.loc 2 577 5 is_stmt 0 view .LVU323
 839              		.thumb
 840              		.syntax unified
 841              	.LBE70:
 842              	.LBE69:
 580:Middlewares/ST/threadx/common/src/tx_event_flags_set.c ****             }
 843              		.loc 1 580 17 is_stmt 1 view .LVU324
 580:Middlewares/ST/threadx/common/src/tx_event_flags_set.c ****             }
 844              		.loc 1 580 43 is_stmt 0 view .LVU325
 845 01f0 0A4A     		ldr	r2, .L40
 846 01f2 1368     		ldr	r3, [r2]
 847 01f4 013B     		subs	r3, r3, #1
 848 01f6 1360     		str	r3, [r2]
 597:Middlewares/ST/threadx/common/src/tx_event_flags_set.c **** 
 849              		.loc 1 597 9 is_stmt 1 view .LVU326
 850              	.LVL86:
 851              	.LBB73:
 556:Middlewares/ST/threadx/ports/cortex_m4/gnu/inc/tx_port.h **** {
 852              		.loc 2 556 55 view .LVU327
 853              	.LBB45:
 562:Middlewares/ST/threadx/ports/cortex_m4/gnu/inc/tx_port.h **** #endif
 854              		.loc 2 562 5 view .LVU328
 855              		.syntax unified
 856              	@ 562 "Middlewares/ST/threadx/ports/cortex_m4/gnu/inc/tx_port.h" 1
 857 01f8 81F31088 		MSR  PRIMASK,r1
 858              	@ 0 "" 2
 859              	.LVL87:
 562:Middlewares/ST/threadx/ports/cortex_m4/gnu/inc/tx_port.h **** #endif
 860              		.loc 2 562 5 is_stmt 0 view .LVU329
 861              		.thumb
ARM GAS  /var/folders/pn/6vkv57yd1x9dxx59v7t3_slc0000gn/T//cc3QrNNe.s 			page 42


 862              		.syntax unified
 863              	.LBE45:
 864              	.LBE73:
 611:Middlewares/ST/threadx/common/src/tx_event_flags_set.c ****         {
 865              		.loc 1 611 9 is_stmt 1 view .LVU330
 611:Middlewares/ST/threadx/common/src/tx_event_flags_set.c ****         {
 866              		.loc 1 611 12 is_stmt 0 view .LVU331
 867 01fc 012D     		cmp	r5, #1
 868 01fe 7FF416AF 		bne	.L5
 869              	.LVL88:
 870              	.L14:
 615:Middlewares/ST/threadx/common/src/tx_event_flags_set.c ****         }
 871              		.loc 1 615 13 is_stmt 1 view .LVU332
 872 0202 FFF7FEFF 		bl	_tx_thread_system_preempt_check
 873              	.LVL89:
 874 0206 12E7     		b	.L5
 875              	.LVL90:
 876              	.L7:
 587:Middlewares/ST/threadx/common/src/tx_event_flags_set.c ****             {
 877              		.loc 1 587 13 view .LVU333
 587:Middlewares/ST/threadx/common/src/tx_event_flags_set.c ****             {
 878              		.loc 1 587 16 is_stmt 0 view .LVU334
 879 0208 2AB1     		cbz	r2, .L28
 592:Middlewares/ST/threadx/common/src/tx_event_flags_set.c ****             }
 880              		.loc 1 592 17 is_stmt 1 view .LVU335
 592:Middlewares/ST/threadx/common/src/tx_event_flags_set.c ****             }
 881              		.loc 1 592 64 is_stmt 0 view .LVU336
 882 020a 0123     		movs	r3, #1
 883              	.LVL91:
 592:Middlewares/ST/threadx/common/src/tx_event_flags_set.c ****             }
 884              		.loc 1 592 64 view .LVU337
 885 020c CCF80C30 		str	r3, [ip, #12]
 597:Middlewares/ST/threadx/common/src/tx_event_flags_set.c **** 
 886              		.loc 1 597 9 is_stmt 1 view .LVU338
 887              	.LVL92:
 888              	.LBB74:
 556:Middlewares/ST/threadx/ports/cortex_m4/gnu/inc/tx_port.h **** {
 889              		.loc 2 556 55 view .LVU339
 890              	.LBB46:
 562:Middlewares/ST/threadx/ports/cortex_m4/gnu/inc/tx_port.h **** #endif
 891              		.loc 2 562 5 view .LVU340
 892              		.syntax unified
 893              	@ 562 "Middlewares/ST/threadx/ports/cortex_m4/gnu/inc/tx_port.h" 1
 894 0210 8EF31088 		MSR  PRIMASK,lr
 895              	@ 0 "" 2
 896              	.LVL93:
 562:Middlewares/ST/threadx/ports/cortex_m4/gnu/inc/tx_port.h **** #endif
 897              		.loc 2 562 5 is_stmt 0 view .LVU341
 898              		.thumb
 899              		.syntax unified
 900              	.LBE46:
 901              	.LBE74:
 611:Middlewares/ST/threadx/common/src/tx_event_flags_set.c ****         {
 902              		.loc 1 611 9 is_stmt 1 view .LVU342
 903 0214 0BE7     		b	.L5
 904              	.LVL94:
 905              	.L28:
ARM GAS  /var/folders/pn/6vkv57yd1x9dxx59v7t3_slc0000gn/T//cc3QrNNe.s 			page 43


 597:Middlewares/ST/threadx/common/src/tx_event_flags_set.c **** 
 906              		.loc 1 597 9 view .LVU343
 907              	.LBB75:
 556:Middlewares/ST/threadx/ports/cortex_m4/gnu/inc/tx_port.h **** {
 908              		.loc 2 556 55 view .LVU344
 909              	.LBB47:
 562:Middlewares/ST/threadx/ports/cortex_m4/gnu/inc/tx_port.h **** #endif
 910              		.loc 2 562 5 view .LVU345
 911              		.syntax unified
 912              	@ 562 "Middlewares/ST/threadx/ports/cortex_m4/gnu/inc/tx_port.h" 1
 913 0216 8EF31088 		MSR  PRIMASK,lr
 914              	@ 0 "" 2
 915              	.LVL95:
 562:Middlewares/ST/threadx/ports/cortex_m4/gnu/inc/tx_port.h **** #endif
 916              		.loc 2 562 5 is_stmt 0 view .LVU346
 917              		.thumb
 918              		.syntax unified
 919              	.LBE47:
 920              	.LBE75:
 611:Middlewares/ST/threadx/common/src/tx_event_flags_set.c ****         {
 921              		.loc 1 611 9 is_stmt 1 view .LVU347
 922 021a 08E7     		b	.L5
 923              	.L41:
 924              		.align	2
 925              	.L40:
 926 021c 00000000 		.word	_tx_thread_preempt_disable
 927              		.cfi_endproc
 928              	.LFE8:
 930              		.text
 931              	.Letext0:
 932              		.file 3 "Middlewares/ST/threadx/common/inc/tx_api.h"
 933              		.file 4 "Middlewares/ST/threadx/common/inc/tx_thread.h"
ARM GAS  /var/folders/pn/6vkv57yd1x9dxx59v7t3_slc0000gn/T//cc3QrNNe.s 			page 44

